匡숭：Key.c        긍陋포경굶 HGASM 0202 女늴1


   1  0000              ; Generated by holtek-gcc v3.23, Wed Apr 08 12:56:32 2026
   2  0000              ; 
   3  0000              ; Configuration:
   4  0000              ;       with long instruction
   5  0000              ;       Multi-ROM, Multi-RAM
   6  0000              ;       bits_per_rom_unit:16
   7  0000              ;       with mp1
   8  0000              ;       with tbhp, address(0x9)
   9  0000              ;          Use tabrd-const
  10  0000              ;       
  11  0000              ; SFR address of long-instruction arch:
  12  0000              ;    mp0 = -1,1,0
  13  0000              ;    mp1 = 4,3,2
  14  0000              ;    mp2 = 14,13,12
  15  0000              ;    tbp = 9,7,8
  16  0000              ;    acc = 5
  17  0000              ;    pcl = 6
  18  0000              ;    status = 10
  19  0000              ;    bp = 11
  20  0000              ;    intc = 16
  21  0000              ;       
  22  0000              ;       
  23  0000              ; use 'tabrdc' instead of 'tabrd'
  24  0000              ;       
  25  0000              
  26  0000              #pragma translator "holtek-gcc 4.6.4" "3.23" "build 20130711"
  27  0000              ; Rebuild 1114
  28  0000              
  29  0000              ir equ [2]
  30  0000              mp equ [3]
  31  0000              sbp equ [4]
  32  0000              acc equ [5]
  33  0000              bp equ [11]
  34  0000              tblp equ [7]
  35  0000              tbhp equ [9]
  36  0000              status equ [10]
  37  0000              c equ [10].0
  38  0000              ac equ [10].1
  39  0000              z equ [10].2
  40  0000              ov equ [10].3
  41  0000              cz equ [10].6
  42  0000              sc equ [10].7
  43  0000              intc equ [16]
  44  0000              mduwr0 equ [59h]
  45  0000              mduwr1 equ [5ah]
  46  0000              mduwr2 equ [5bh]
  47  0000              mduwr3 equ [5ch]
  48  0000              mduwr4 equ [5dh]
  49  0000              mduwr5 equ [5eh]
  50  0000              mduwrctrl equ [5fh]
  51  0000              
  52  0000              extern ra:byte
  53  0000              extern rb:byte
  54  0000              extern rc:byte
  55  0000              extern rd:byte
  56  0000              extern re:byte
  57  0000              extern rf:byte
  58  0000              extern rg:byte
  59  0000              extern rh:byte
匡숭：Key.ASM      긍陋포경굶 HGASM 0202 女늴2

  60  0000              extern _Crom2Prom:near
  61  0000              extern _Crom2PromNext:near
  62  0000              
  63  0000              RAMBANK 0 @BITDATASEC, @BITDATASEC1
  64  0000              @HCCINIT	.section 'data'
  65  0000              @HCCINIT0	.section 'data'
  66  0000              @BITDATASEC	 .section 'data'
  67  0000              @BITDATASEC1	 .section 'data'
  68  0000              
  69  0000              #pragma debug scope 1 1
  70  0000              	extern __DELAY3:near
  71  0000              	extern __DELAYX3:near
  72  0000              	extern __DELAYX6:near
  73  0000              	extern __DELAYY5:near
  74  0000              	extern __DELAYY3:near
  75  0000              	extern _builtin_holtek_delay_2:byte
  76  0000              ___pdc equ [31]
  77  0000              ___pcc equ [28]
  78  0000              ___pec equ [34]
  79  0000              ___pdpu equ [32]
  80  0000              ___pcpu equ [29]
  81  0000              ___pepu equ [35]
  82  0000              public _Key_Init
  83  0000              #pragma debug scope 2 1

  33  0000              #line 33 "D:\zpw\귄\2362A\project\Key.c"
  33  0000              _Key_Init .section 'code'
  33  0000              _Key_Init proc
  35  0000              #line 35 "D:\zpw\귄\2362A\project\Key.c"
  35  0000  311F        	set [31].2
  36  0001              #line 36 "D:\zpw\귄\2362A\project\Key.c"
  36  0001  319F        	set [31].3
  37  0002              #line 37 "D:\zpw\귄\2362A\project\Key.c"
  37  0002  311C        	set [28].2
  38  0003              #line 38 "D:\zpw\귄\2362A\project\Key.c"
  38  0003  309C        	set [28].1
  39  0004              #line 39 "D:\zpw\귄\2362A\project\Key.c"
  39  0004  32A2        	set [34].5
  40  0005              #line 40 "D:\zpw\귄\2362A\project\Key.c"
  40  0005  3322        	set [34].6
  43  0006              #line 43 "D:\zpw\귄\2362A\project\Key.c"
  43  0006  3120        	set [32].2
  44  0007              #line 44 "D:\zpw\귄\2362A\project\Key.c"
  44  0007  31A0        	set [32].3
  45  0008              #line 45 "D:\zpw\귄\2362A\project\Key.c"
  45  0008  311D        	set [29].2
  46  0009              #line 46 "D:\zpw\귄\2362A\project\Key.c"
  46  0009  309D        	set [29].1
  47  000A              #line 47 "D:\zpw\귄\2362A\project\Key.c"
  47  000A  32A3        	set [35].5
  48  000B              #line 48 "D:\zpw\귄\2362A\project\Key.c"
  48  000B  3323        	set [35].6
  48  000C  0003        	ret
  48  000D              _Key_Init endp
  48  000D              #line 48 "D:\zpw\귄\2362A\project\Key.c"
  48  000D              #pragma debug scope 1 1
  48  000D              ___pd equ [30]
  48  000D              ___pc equ [27]
  48  000D              ___pe equ [33]
  48  000D              public _Key_Read
匡숭：Key.c        긍陋포경굶 HGASM 0202 女늴3

  48  000D              #pragma debug scope 3 1
  52  000D              #line 52 "D:\zpw\귄\2362A\project\Key.c"
  52  0000              _Key_Read .section 'code'
  52  0000              _Key_Read proc
  52  0000  00              local _Key_Read_2 db 1 dup(?)	; 0,1
  52  0000  0080     E  	mov ra,a
  52  0001  0080     R  	mov _Key_Read_2[0],a
  52  0002              #pragma debug variable 8 3 _Key_Read_2+0 "Data"
  54  0002              #line 54 "D:\zpw\귄\2362A\project\Key.c"
  54  0002  0700     E  	mov a,ra
  54  0003  0A01        	sub a,1
  54  0004  3D0A        	sz z
  54  0005  2800     R  	jmp _L4
  54  0006  0A01        	sub a,(2)-(1)
  54  0007  3D0A        	sz z
  54  0008  2800     R  	jmp _L5
  54  0009              #line 54 "D:\zpw\귄\2362A\project\Key.c"
  54  0009  0700     E  	mov a,ra
  54  000A  0A03        	sub a,3
  54  000B  3D0A        	sz z
  54  000C  2800     R  	jmp _L6
  54  000D  0A01        	sub a,(4)-(3)
  54  000E  3D0A        	sz z
  54  000F  2800     R  	jmp _L7
  54  0010  0700     E  	mov a,ra
  54  0011  0A05        	sub a,5
  54  0012  390A        	snz z
  54  0013  2800     R  	jmp _L10
  60  0014              #line 60 "D:\zpw\귄\2362A\project\Key.c"
  60  0014  1F00     E  	clr ra
  60  0015  3EA1        	sz [33].5
  60  0016  1480     E  	inc ra
  60  0017  2800     R  	jmp _L3
  60  0018              _L6:
  56  0018              #line 56 "D:\zpw\귄\2362A\project\Key.c"
  56  0018  1F00     E  	clr ra
  56  0019  3D9E        	sz [30].3
  56  001A  1480     E  	inc ra
  56  001B  2800     R  	jmp _L3
  56  001C              _L4:
  57  001C              #line 57 "D:\zpw\귄\2362A\project\Key.c"
  57  001C  1F00     E  	clr ra
  57  001D  3C9B        	sz [27].1
  57  001E  1480     E  	inc ra
  57  001F  2800     R  	jmp _L3
  57  0020              _L5:
  58  0020              #line 58 "D:\zpw\귄\2362A\project\Key.c"
  58  0020  1F00     E  	clr ra
  58  0021  3D1B        	sz [27].2
  58  0022  1480     E  	inc ra
  58  0023  2800     R  	jmp _L3
  58  0024              _L7:
  59  0024              #line 59 "D:\zpw\귄\2362A\project\Key.c"
  59  0024  1F00     E  	clr ra
  59  0025  3D1E        	sz [30].2
  59  0026  1480     E  	inc ra
  59  0027  2800     R  	jmp _L3
  59  0028              _L10:
  61  0028              #line 61 "D:\zpw\귄\2362A\project\Key.c"
  61  0028  1F00     E  	clr ra
匡숭：Key.c        긍陋포경굶 HGASM 0202 女늴4

  61  0029              _L3:
  64  0029              #line 64 "D:\zpw\귄\2362A\project\Key.c"
  64  0029  0700     E  	mov a,ra
  64  002A  0003        	ret
  64  002B              _Key_Read endp
  64  002B              #line 64 "D:\zpw\귄\2362A\project\Key.c"
  64  002B              #pragma debug scope 1 1
  64  002B              public _Key_Check
  64  002B              #pragma debug scope 4 1
  67  002B              #line 67 "D:\zpw\귄\2362A\project\Key.c"
  67  0000              _Key_Check .section 'code'
  67  0000              _Key_Check proc
  67  0000  0007[           local _Key_Check_2 db 7 dup(?)	; 0,7
            00
            ]
  67  0007              #pragma debug variable 8 4 _Key_Check_2+6 "i"
  67  0000  0F05        	mov a,5
  67  0001  0080     R  	mov _Key_Check_2[5],a
  70  0002              #line 70 "D:\zpw\귄\2362A\project\Key.c"
  70  0002  1F00     R  	clr _Key_Check_2[6]
  70  0003              _L26:
  72  0003              #line 72 "D:\zpw\귄\2362A\project\Key.c"
  72  0003  0700     R  	mov a,_Key_Check_2[6]
  72  0004  0080     R  	mov _Key_Check_2[0],a
  72  0005  1F00     R  	clr _Key_Check_2[1]
  72  0006  340A        	clr c
  72  0007  1A00     R  	rlca _Key_Check_2[0]
  72  0008  0080     E  	mov rb,a
  72  0009  1A00     R  	rlca _Key_Check_2[1]
  72  000A  0080     E  	mov rc,a
  72  000B  0700     R  	mov a,_Key_Check_2[0]
  72  000C  0300     E  	add a,rb
  72  000D  0080     R  	mov _Key_Check_2[2],a
  72  000E  0700     R  	mov a,_Key_Check_2[1]
  72  000F  1300     E  	adc a,rc
  72  0010  0080     R  	mov _Key_Check_2[3],a
  72  0011  0F00     R  	mov a,low offset _Key
  72  0012  0300     R  	add a,_Key_Check_2[2]
  72  0013  0083        	mov mp,a
  72  0014  0F00     R  	mov a,high offset _Key
  72  0015  1300     R  	adc a,_Key_Check_2[3]
  72  0016  0084        	mov sbp,a
  72  0017              	fcall _Crom2Prom
  72  001E              	fcall _Key_Read
  72  0025  0080     E  	mov ra,a
  73  0026              #line 73 "D:\zpw\귄\2362A\project\Key.c"
  73  0026  1080     E  	sz ra
  73  0027  2800     R  	jmp _L13
  75  0028              #line 75 "D:\zpw\귄\2362A\project\Key.c"
  75  0028  0F00     R  	mov a,low offset _Debounce
  75  0029  0300     R  	add a,_Key_Check_2[0]
  75  002A  0083        	mov mp,a
  75  002B  0F00     R  	mov a,high offset _Debounce
  75  002C  1300     R  	adc a,_Key_Check_2[1]
  75  002D  0084        	mov sbp,a
  75  002E              	fcall _Crom2Prom
  75  0035  0080     R  	mov _Key_Check_2[4],a
  75  0036  0F01        	mov a,1
  75  0037  0200     R  	sub a,_Key_Check_2[4]
  75  0038  380A        	snz c
匡숭：Key.c        긍陋포경굶 HGASM 0202 女늴5

  75  0039  2800     R  	jmp _L14
  77  003A              #line 77 "D:\zpw\귄\2362A\project\Key.c"
  77  003A  1400     R  	inca _Key_Check_2[4]
  77  003B  0080     E  	mov ra,a
  77  003C  0700     E  	mov a,ra
  77  003D  0082        	mov ir,a
  77  003E  2800     R  	jmp _L15
  77  003F              _L14:
  79  003F              #line 79 "D:\zpw\귄\2362A\project\Key.c"
  79  003F  0700     R  	mov a,_Key_Check_2[4]
  79  0040  0A02        	sub a,2
  79  0041  390A        	snz z
  79  0042  2800     R  	jmp _L15
  81  0043              #line 81 "D:\zpw\귄\2362A\project\Key.c"
  81  0043  0F00     R  	mov a,low (offset _Key+1)
  81  0044  0300     R  	add a,_Key_Check_2[2]
  81  0045  0083        	mov mp,a
  81  0046  0F00     R  	mov a,high (offset _Key+1)
  81  0047  1300     R  	adc a,_Key_Check_2[3]
  81  0048  0084        	mov sbp,a
  81  0049  2800     R  	jmp _L27
  81  004A              _L13:
  86  004A              #line 86 "D:\zpw\귄\2362A\project\Key.c"
  86  004A  0F00     R  	mov a,low (offset _Key+1)
  86  004B  0300     R  	add a,_Key_Check_2[2]
  86  004C  0083        	mov mp,a
  86  004D  0F00     R  	mov a,high (offset _Key+1)
  86  004E  1300     R  	adc a,_Key_Check_2[3]
  86  004F  0084        	mov sbp,a
  86  0050              	fcall _Crom2Prom
  86  0057  0080     E  	mov ra,a
  86  0058  1080     E  	sz ra
  86  0059  2800     R  	jmp _L16
  86  005A  0F00     R  	mov a,low (offset _Key+2)
  86  005B  0300     R  	add a,_Key_Check_2[2]
  86  005C  0083        	mov mp,a
  86  005D  0F00     R  	mov a,high (offset _Key+2)
  86  005E  1300     R  	adc a,_Key_Check_2[3]
  86  005F  0084        	mov sbp,a
  86  0060              	fcall _Crom2Prom
  86  0067  0080     E  	mov ra,a
  86  0068  1080     E  	sz ra
  86  0069  2800     R  	jmp _L16
  88  006A              #line 88 "D:\zpw\귄\2362A\project\Key.c"
  88  006A  0F00     R  	mov a,low offset _Key_Report_CNT
  88  006B  0300     R  	add a,_Key_Check_2[0]
  88  006C  0083        	mov mp,a
  88  006D  0F00     R  	mov a,high offset _Key_Report_CNT
  88  006E  1300     R  	adc a,_Key_Check_2[1]
  88  006F  0084        	mov sbp,a
  88  0070  0F01        	mov a,1
  88  0071  0082        	mov ir,a
  88  0072              _L16:
  90  0072              #line 90 "D:\zpw\귄\2362A\project\Key.c"
  90  0072  340A        	clr c
  90  0073  1A00     R  	rlca _Key_Check_2[0]
  90  0074  0080     E  	mov rb,a
  90  0075  1A00     R  	rlca _Key_Check_2[1]
  90  0076  0080     E  	mov rc,a
  90  0077  0700     R  	mov a,_Key_Check_2[0]
匡숭：Key.c        긍陋포경굶 HGASM 0202 女늴6

  90  0078  0380     E  	addm a,rb
  90  0079  0700     R  	mov a,_Key_Check_2[1]
  90  007A  1380     E  	adcm a,rc
  90  007B  0F00     R  	mov a,low (offset _Key+1)
  90  007C  0300     E  	add a,rb
  90  007D  0083        	mov mp,a
  90  007E  0F00     R  	mov a,high (offset _Key+1)
  90  007F  1300     E  	adc a,rc
  90  0080  0084        	mov sbp,a
  90  0081  0F01        	mov a,1
  90  0082  0082        	mov ir,a
  91  0083              #line 91 "D:\zpw\귄\2362A\project\Key.c"
  91  0083  0F00     R  	mov a,low offset _Debounce
  91  0084  0300     R  	add a,_Key_Check_2[0]
  91  0085  0083        	mov mp,a
  91  0086  0F00     R  	mov a,high offset _Debounce
  91  0087  1300     R  	adc a,_Key_Check_2[1]
  91  0088  0084        	mov sbp,a
  91  0089  0F00        	mov a,0
  91  008A  0082        	mov ir,a
  92  008B              #line 92 "D:\zpw\귄\2362A\project\Key.c"
  92  008B  0F00     R  	mov a,low offset _LONG_PRESS_INTERVAL_REPORT_CNT
  92  008C  0300     R  	add a,_Key_Check_2[0]
  92  008D  0083        	mov mp,a
  92  008E  0F00     R  	mov a,high offset _LONG_PRESS_INTERVAL_REPORT_CNT
  92  008F  1300     R  	adc a,_Key_Check_2[1]
  92  0090  0084        	mov sbp,a
  92  0091  0F00        	mov a,0
  92  0092  0082        	mov ir,a
  93  0093              #line 93 "D:\zpw\귄\2362A\project\Key.c"
  93  0093  0F00     R  	mov a,low offset _Long_Press_SINGLE_REPORT_CNT
  93  0094  0300     R  	add a,_Key_Check_2[0]
  93  0095  0083        	mov mp,a
  93  0096  0F00     R  	mov a,high offset _Long_Press_SINGLE_REPORT_CNT
  93  0097  1300     R  	adc a,_Key_Check_2[1]
  93  0098  0084        	mov sbp,a
  93  0099              _L27:
  93  0099  0F00        	mov a,0
  93  009A  0082        	mov ir,a
  93  009B              _L15:
  95  009B              #line 95 "D:\zpw\귄\2362A\project\Key.c"
  95  009B  340A        	clr c
  95  009C  1A00     R  	rlca _Key_Check_2[0]
  95  009D  0080     E  	mov rb,a
  95  009E  1A00     R  	rlca _Key_Check_2[1]
  95  009F  0080     E  	mov rc,a
  95  00A0  0700     R  	mov a,_Key_Check_2[0]
  95  00A1  0380     E  	addm a,rb
  95  00A2  0700     R  	mov a,_Key_Check_2[1]
  95  00A3  1380     E  	adcm a,rc
  95  00A4  0F00     R  	mov a,low (offset _Key+1)
  95  00A5  0300     E  	add a,rb
  95  00A6  0083        	mov mp,a
  95  00A7  0F00     R  	mov a,high (offset _Key+1)
  95  00A8  1300     E  	adc a,rc
  95  00A9  0084        	mov sbp,a
  95  00AA              	fcall _Crom2Prom
  95  00B1  0080     E  	mov ra,a
  95  00B2  1080     E  	sz ra
  95  00B3  2800     R  	jmp _L18
匡숭：Key.c        긍陋포경굶 HGASM 0202 女늴7

  97  00B4              #line 97 "D:\zpw\귄\2362A\project\Key.c"
  97  00B4  0F00     R  	mov a,low (offset _Key+2)
  97  00B5  0300     E  	add a,rb
  97  00B6  0083        	mov mp,a
  97  00B7  0F00     R  	mov a,high (offset _Key+2)
  97  00B8  1300     E  	adc a,rc
  97  00B9  0084        	mov sbp,a
  97  00BA              	fcall _Crom2Prom
  97  00C1  0080     R  	mov _Key_Check_2[2],a
  97  00C2  1700     R  	sdza _Key_Check_2[2]
  97  00C3  2800     R  	jmp _LI1
  97  00C4  2800     R  	jmp _L19
  97  00C5              _LI1:
  97  00C5  0700     R  	mov a,_Key_Check_2[2]
  97  00C6  0A02        	sub a,2
  97  00C7  390A        	snz z
  97  00C8  2800     R  	jmp _L18
  97  00C9  2800     R  	jmp _L29
  97  00CA              _L19:
 100  00CA              #line 100 "D:\zpw\귄\2362A\project\Key.c"
 100  00CA  0F00     R  	mov a,low offset _Long_Press_SINGLE_REPORT_CNT
 100  00CB  0300     R  	add a,_Key_Check_2[0]
 100  00CC  0083        	mov mp,a
 100  00CD  0F00     R  	mov a,high offset _Long_Press_SINGLE_REPORT_CNT
 100  00CE  1300     R  	adc a,_Key_Check_2[1]
 100  00CF  0084        	mov sbp,a
 100  00D0              	fcall _Crom2Prom
 100  00D7  0080     E  	mov ra,a
 100  00D8  0F63        	mov a,99
 100  00D9  0200     E  	sub a,ra
 100  00DA  380A        	snz c
 100  00DB  2800     R  	jmp _L21
 102  00DC              #line 102 "D:\zpw\귄\2362A\project\Key.c"
 102  00DC  1480     E  	inc ra
 102  00DD  0700     E  	mov a,ra
 102  00DE  0082        	mov ir,a
 102  00DF              _L21:
 104  00DF              #line 104 "D:\zpw\귄\2362A\project\Key.c"
 104  00DF  0F00     R  	mov a,low offset _Long_Press_SINGLE_REPORT_CNT
 104  00E0  0300     R  	add a,_Key_Check_2[0]
 104  00E1  0080     E  	mov rb,a
 104  00E2  0F00     R  	mov a,high offset _Long_Press_SINGLE_REPORT_CNT
 104  00E3  1300     R  	adc a,_Key_Check_2[1]
 104  00E4  0080     E  	mov rc,a
 104  00E5  0700     E  	mov a,rb
 104  00E6  0083        	mov mp,a
 104  00E7  0700     E  	mov a,rc
 104  00E8  0084        	mov sbp,a
 104  00E9              	fcall _Crom2Prom
 104  00F0  0080     E  	mov ra,a
 104  00F1  0700     E  	mov a,ra
 104  00F2  0A64        	sub a,100
 104  00F3  390A        	snz z
 104  00F4  2800     R  	jmp _L18
 106  00F5              #line 106 "D:\zpw\귄\2362A\project\Key.c"
 106  00F5  0F00     R  	mov a,low offset _Key_Report_CNT
 106  00F6  0300     R  	add a,_Key_Check_2[0]
 106  00F7  0083        	mov mp,a
 106  00F8  0F00     R  	mov a,high offset _Key_Report_CNT
 106  00F9  1300     R  	adc a,_Key_Check_2[1]
匡숭：Key.c        긍陋포경굶 HGASM 0202 女늴8

 106  00FA  0084        	mov sbp,a
 106  00FB  0F01        	mov a,1
 106  00FC  0082        	mov ir,a
 107  00FD              #line 107 "D:\zpw\귄\2362A\project\Key.c"
 107  00FD  0700     E  	mov a,rb
 107  00FE  0083        	mov mp,a
 107  00FF  0700     E  	mov a,rc
 107  0100  0084        	mov sbp,a
 107  0101  0F65        	mov a,101
 107  0102  0082        	mov ir,a
 107  0103  2800     R  	jmp _L18
 107  0104              _L29:
 112  0104              #line 112 "D:\zpw\귄\2362A\project\Key.c"
 112  0104  0F00     R  	mov a,low offset _Long_Press_SINGLE_REPORT_CNT
 112  0105  0300     R  	add a,_Key_Check_2[0]
 112  0106  0080     E  	mov rb,a
 112  0107  0F00     R  	mov a,high offset _Long_Press_SINGLE_REPORT_CNT
 112  0108  1300     R  	adc a,_Key_Check_2[1]
 112  0109  0080     E  	mov rc,a
 112  010A  0700     E  	mov a,rb
 112  010B  0083        	mov mp,a
 112  010C  0700     E  	mov a,rc
 112  010D  0084        	mov sbp,a
 112  010E              	fcall _Crom2Prom
 112  0115  0080     R  	mov _Key_Check_2[2],a
 112  0116  1080     R  	sz _Key_Check_2[2]
 112  0117  2800     R  	jmp _L23
 114  0118              #line 114 "D:\zpw\귄\2362A\project\Key.c"
 114  0118  0F00     R  	mov a,low offset _Key_Report_CNT
 114  0119  0300     R  	add a,_Key_Check_2[0]
 114  011A  0083        	mov mp,a
 114  011B  0F00     R  	mov a,high offset _Key_Report_CNT
 114  011C  1300     R  	adc a,_Key_Check_2[1]
 114  011D  0084        	mov sbp,a
 114  011E              	fcall _Crom2Prom
 114  0125  0080     R  	mov _Key_Check_2[0],a
 114  0126  1400     R  	inca _Key_Check_2[0]
 114  0127  0080     E  	mov ra,a
 114  0128  0700     E  	mov a,ra
 114  0129  0082        	mov ir,a
 115  012A              #line 115 "D:\zpw\귄\2362A\project\Key.c"
 115  012A  0700     E  	mov a,rb
 115  012B  0083        	mov mp,a
 115  012C  0700     E  	mov a,rc
 115  012D  0084        	mov sbp,a
 115  012E  0F01        	mov a,1
 115  012F  0082        	mov ir,a
 115  0130  2800     R  	jmp _L18
 115  0131              _L23:
 118  0131              #line 118 "D:\zpw\귄\2362A\project\Key.c"
 118  0131  0F63        	mov a,99
 118  0132  0200     R  	sub a,_Key_Check_2[2]
 118  0133  380A        	snz c
 118  0134  2800     R  	jmp _L24
 120  0135              #line 120 "D:\zpw\귄\2362A\project\Key.c"
 120  0135  1400     R  	inca _Key_Check_2[2]
 120  0136  0080     E  	mov ra,a
 120  0137  2800     R  	jmp _L28
 120  0138              _L24:
 125  0138              #line 125 "D:\zpw\귄\2362A\project\Key.c"
匡숭：Key.c        긍陋포경굶 HGASM 0202 女늴9

 125  0138  0F00     R  	mov a,low offset _LONG_PRESS_INTERVAL_REPORT_CNT
 125  0139  0300     R  	add a,_Key_Check_2[0]
 125  013A  0083        	mov mp,a
 125  013B  0F00     R  	mov a,high offset _LONG_PRESS_INTERVAL_REPORT_CNT
 125  013C  1300     R  	adc a,_Key_Check_2[1]
 125  013D  0084        	mov sbp,a
 125  013E              	fcall _Crom2Prom
 125  0145  0080     R  	mov _Key_Check_2[2],a
 125  0146  1400     R  	inca _Key_Check_2[2]
 125  0147  0080     E  	mov ra,a
 125  0148  0700     E  	mov a,ra
 125  0149  0082        	mov ir,a
 126  014A              #line 126 "D:\zpw\귄\2362A\project\Key.c"
 126  014A  0F1D        	mov a,29
 126  014B  0200     E  	sub a,ra
 126  014C  3C0A        	sz c
 126  014D  2800     R  	jmp _L18
 128  014E              #line 128 "D:\zpw\귄\2362A\project\Key.c"
 128  014E  0F00        	mov a,0
 128  014F  0082        	mov ir,a
 129  0150              #line 129 "D:\zpw\귄\2362A\project\Key.c"
 129  0150  0F00     R  	mov a,low offset _Key_Report_CNT
 129  0151  0300     R  	add a,_Key_Check_2[0]
 129  0152  0083        	mov mp,a
 129  0153  0F00     R  	mov a,high offset _Key_Report_CNT
 129  0154  1300     R  	adc a,_Key_Check_2[1]
 129  0155  0084        	mov sbp,a
 129  0156              	fcall _Crom2Prom
 129  015D  0080     R  	mov _Key_Check_2[0],a
 129  015E  1400     R  	inca _Key_Check_2[0]
 129  015F  0080     E  	mov ra,a
 129  0160              _L28:
 129  0160  0700     E  	mov a,ra
 129  0161  0082        	mov ir,a
 129  0162              _L18:
  70  0162              #line 70 "D:\zpw\귄\2362A\project\Key.c"
  70  0162  1480     R  	inc _Key_Check_2[6]
  70  0163  1780     R  	sdz _Key_Check_2[5]
  70  0164  2800     R  	jmp _L26
  70  0165  0003        	ret
  70  0166              _Key_Check endp
  70  0166              #line 70 "D:\zpw\귄\2362A\project\Key.c"
  70  0166              #pragma debug scope 1 1
  70  0166              public _Key_Handle
  70  0166              #pragma debug scope 5 1
 140  0166              #line 140 "D:\zpw\귄\2362A\project\Key.c"
 140  0000              _Key_Handle .section 'code'
 140  0000              _Key_Handle proc
 141  0000              #line 141 "D:\zpw\귄\2362A\project\Key.c"
 141  0000  1E00     R  	snz _Key_Report_CNT[0]
 141  0001  2800     R  	jmp _L31
 141  0002              #line 141 "D:\zpw\귄\2362A\project\Key.c"
 141  0002              	fcall _Handle_ADD
 141  0009  1580     R  	dec _Key_Report_CNT[0]
 141  000A              _L31:
 142  000A              #line 142 "D:\zpw\귄\2362A\project\Key.c"
 142  000A  1E00     R  	snz _Key_Report_CNT[1]
 142  000B  2800     R  	jmp _L32
 142  000C              	fcall _Handle_MIN
 142  0013  1580     R  	dec _Key_Report_CNT[1]
匡숭：Key.c        긍陋포경굶 HGASM 0202 女늴10

 142  0014              _L32:
 143  0014              #line 143 "D:\zpw\귄\2362A\project\Key.c"
 143  0014  0700     R  	mov a,_Key_Report_CNT[2]
 143  0015  0080     E  	mov ra,a
 143  0016  1E00     E  	snz ra
 143  0017  2800     R  	jmp _L33
 143  0018  0F01        	mov a,1
 143  0019  0080     E  	mov _UART1_WIFI_Config_Flag[0],a
 143  001A  1500     E  	deca ra
 143  001B  0080     R  	mov _Key_Report_CNT[2],a
 143  001C              _L33:
 144  001C              #line 144 "D:\zpw\귄\2362A\project\Key.c"
 144  001C  0700     R  	mov a,_Key_Report_CNT[3]
 144  001D  0080     E  	mov ra,a
 144  001E  1E00     E  	snz ra
 144  001F  2800     R  	jmp _L34
 144  0020  0F01        	mov a,1
 144  0021  0080     E  	mov _UART0_433MHz_Pairing_Code_Flag[0],a
 144  0022  1500     E  	deca ra
 144  0023  0080     R  	mov _Key_Report_CNT[3],a
 144  0024              _L34:
 145  0024              #line 145 "D:\zpw\귄\2362A\project\Key.c"
 145  0024  1E00     R  	snz _Key_Report_CNT[4]
 145  0025  2800     R  	jmp _L30
 145  0026              	fcall _Handle_ADD
 145  002D  1580     R  	dec _Key_Report_CNT[4]
 145  002E              _L30:
 145  002E  0003        	ret
 145  002F              _Key_Handle endp
 145  002F              #line 145 "D:\zpw\귄\2362A\project\Key.c"
 145  002F              #pragma debug scope 1 1
 145  002F              public _Key_Report_CNT
 145  0000              @HCCINIT	.section 'data'
  30  0000              #line 30 "D:\zpw\귄\2362A\project\Key.c"
  30  0000              @HCCINIT_Key_Report_CNT .section 'data'
  30  0000              _Key_Report_CNT label byte
  30  0000              #pragma debug array 42 8 5 1
  30  0000              #pragma debug array 42 8 5 1
  30  0000              #pragma debug variable 42 1 _Key_Report_CNT "Key_Report_CNT"
  30  0000              	db 0
  30  0000              @ROMDATA_BASE .section inpage 'code'
  30  0000              	db 0
  30  0001              @HCCINIT_Key_Report_CNT .section 'data'
  30  0001              	db 0
  30  0001              @ROMDATA_BASE .section inpage 'code'
  30  0001              	db 0
  30  0002              @HCCINIT_Key_Report_CNT .section 'data'
  30  0002              	db 0
  30  0001              @ROMDATA_BASE .section inpage 'code'
  30  0001              	db 0
  30  0003              @HCCINIT_Key_Report_CNT .section 'data'
  30  0003              	db 0
  30  0002              @ROMDATA_BASE .section inpage 'code'
  30  0002              	db 0
  30  0004              @HCCINIT_Key_Report_CNT .section 'data'
  30  0004              	db 0
  30  0002              @ROMDATA_BASE .section inpage 'code'
  30  0002              	db 0
  30  0005              @HCCINIT_Key_Report_CNT .section 'data'
  30  0005              public _Long_Press_SINGLE_REPORT_CNT
匡숭：Key.c        긍陋포경굶 HGASM 0202 女늴11

  29  0005              #line 29 "D:\zpw\귄\2362A\project\Key.c"
  29  0000              @HCCINIT_Long_Press_SINGLE_REPORT_CNT .section 'data'
  29  0000              _Long_Press_SINGLE_REPORT_CNT label byte
  29  0000              #pragma debug variable 42 1 _Long_Press_SINGLE_REPORT_CNT "Long_Press_SINGLE_REPORT_CNT"
  29  0000              	db 0
  29  0003              @ROMDATA_BASE .section inpage 'code'
  29  0003              	db 0
  29  0001              @HCCINIT_Long_Press_SINGLE_REPORT_CNT .section 'data'
  29  0001              	db 0
  29  0003              @ROMDATA_BASE .section inpage 'code'
  29  0003              	db 0
  29  0002              @HCCINIT_Long_Press_SINGLE_REPORT_CNT .section 'data'
  29  0002              	db 0
  29  0004              @ROMDATA_BASE .section inpage 'code'
  29  0004              	db 0
  29  0003              @HCCINIT_Long_Press_SINGLE_REPORT_CNT .section 'data'
  29  0003              	db 0
  29  0004              @ROMDATA_BASE .section inpage 'code'
  29  0004              	db 0
  29  0004              @HCCINIT_Long_Press_SINGLE_REPORT_CNT .section 'data'
  29  0004              	db 0
  29  0005              @ROMDATA_BASE .section inpage 'code'
  29  0005              	db 0
  29  0005              @HCCINIT_Long_Press_SINGLE_REPORT_CNT .section 'data'
  29  0005              public _Debounce
  28  0005              #line 28 "D:\zpw\귄\2362A\project\Key.c"
  28  0000              @HCCINIT_Debounce .section 'data'
  28  0000              _Debounce label byte
  28  0000              #pragma debug variable 42 1 _Debounce "Debounce"
  28  0000              	db 0
  28  0005              @ROMDATA_BASE .section inpage 'code'
  28  0005              	db 0
  28  0001              @HCCINIT_Debounce .section 'data'
  28  0001              	db 0
  28  0006              @ROMDATA_BASE .section inpage 'code'
  28  0006              	db 0
  28  0002              @HCCINIT_Debounce .section 'data'
  28  0002              	db 0
  28  0006              @ROMDATA_BASE .section inpage 'code'
  28  0006              	db 0
  28  0003              @HCCINIT_Debounce .section 'data'
  28  0003              	db 0
  28  0007              @ROMDATA_BASE .section inpage 'code'
  28  0007              	db 0
  28  0004              @HCCINIT_Debounce .section 'data'
  28  0004              	db 0
  28  0007              @ROMDATA_BASE .section inpage 'code'
  28  0007              	db 0
  28  0005              @HCCINIT_Debounce .section 'data'
  28  0005              public _LONG_PRESS_INTERVAL_REPORT_CNT
  27  0005              #line 27 "D:\zpw\귄\2362A\project\Key.c"
  27  0000              @HCCINIT_LONG_PRESS_INTERVAL_REPORT_CNT .section 'data'
  27  0000              _LONG_PRESS_INTERVAL_REPORT_CNT label byte
  27  0000              #pragma debug variable 42 1 _LONG_PRESS_INTERVAL_REPORT_CNT "LONG_PRESS_INTERVAL_REPORT_CNT"
  27  0000              	db 0
  27  0008              @ROMDATA_BASE .section inpage 'code'
  27  0008              	db 0
  27  0001              @HCCINIT_LONG_PRESS_INTERVAL_REPORT_CNT .section 'data'
  27  0001              	db 0
  27  0008              @ROMDATA_BASE .section inpage 'code'
匡숭：Key.c        긍陋포경굶 HGASM 0202 女늴12

  27  0008              	db 0
  27  0002              @HCCINIT_LONG_PRESS_INTERVAL_REPORT_CNT .section 'data'
  27  0002              	db 0
  27  0009              @ROMDATA_BASE .section inpage 'code'
  27  0009              	db 0
  27  0003              @HCCINIT_LONG_PRESS_INTERVAL_REPORT_CNT .section 'data'
  27  0003              	db 0
  27  0009              @ROMDATA_BASE .section inpage 'code'
  27  0009              	db 0
  27  0004              @HCCINIT_LONG_PRESS_INTERVAL_REPORT_CNT .section 'data'
  27  0004              	db 0
  27  000A              @ROMDATA_BASE .section inpage 'code'
  27  000A              	db 0
  27  0005              @HCCINIT_LONG_PRESS_INTERVAL_REPORT_CNT .section 'data'
  27  0005              public _Key
  14  0005              #line 14 "D:\zpw\귄\2362A\project\Key.c"
  14  0000              @HCCINIT_Key .section 'data'
  14  0000              _Key label byte
  14  0000              #pragma debug struct_end
  14  0000              #pragma debug struct_end
  14  0000              #pragma debug array 44 43 5 1
  14  0000              #pragma debug array 44 43 5 1
  14  0000              #pragma debug variable 44 1 _Key "Key"
  14  0000              	db 1
  14  000A              @ROMDATA_BASE .section inpage 'code'
  14  000A              	db 1
  14  0001              @HCCINIT_Key .section 'data'
  14  0001              	db 1
  14  000B              @ROMDATA_BASE .section inpage 'code'
  14  000B              	db 1
  14  0002              @HCCINIT_Key .section 'data'
  14  0002              	db 2
  14  000B              @ROMDATA_BASE .section inpage 'code'
  14  000B              	db 2
  14  0003              @HCCINIT_Key .section 'data'
  14  0003              	db 2
  14  000C              @ROMDATA_BASE .section inpage 'code'
  14  000C              	db 2
  14  0004              @HCCINIT_Key .section 'data'
  14  0004              	db 1
  14  000C              @ROMDATA_BASE .section inpage 'code'
  14  000C              	db 1
  14  0005              @HCCINIT_Key .section 'data'
  14  0005              	db 2
  14  000D              @ROMDATA_BASE .section inpage 'code'
  14  000D              	db 2
  14  0006              @HCCINIT_Key .section 'data'
  14  0006              	db 3
  14  000D              @ROMDATA_BASE .section inpage 'code'
  14  000D              	db 3
  14  0007              @HCCINIT_Key .section 'data'
  14  0007              	db 1
  14  000E              @ROMDATA_BASE .section inpage 'code'
  14  000E              	db 1
  14  0008              @HCCINIT_Key .section 'data'
  14  0008              	db 1
  14  000E              @ROMDATA_BASE .section inpage 'code'
  14  000E              	db 1
  14  0009              @HCCINIT_Key .section 'data'
  14  0009              	db 4
匡숭：Key.c        긍陋포경굶 HGASM 0202 女늴13

  14  000F              @ROMDATA_BASE .section inpage 'code'
  14  000F              	db 4
  14  000A              @HCCINIT_Key .section 'data'
  14  000A              	db 1
  14  000F              @ROMDATA_BASE .section inpage 'code'
  14  000F              	db 1
  14  000B              @HCCINIT_Key .section 'data'
  14  000B              	db 1
  14  0010              @ROMDATA_BASE .section inpage 'code'
  14  0010              	db 1
  14  000C              @HCCINIT_Key .section 'data'
  14  000C              	db 5
  14  0010              @ROMDATA_BASE .section inpage 'code'
  14  0010              	db 5
  14  000D              @HCCINIT_Key .section 'data'
  14  000D              	db 1
  14  0011              @ROMDATA_BASE .section inpage 'code'
  14  0011              	db 1
  14  000E              @HCCINIT_Key .section 'data'
  14  000E              	db 0
  14  0011              @ROMDATA_BASE .section inpage 'code'
  14  0011              	db 0
  14  000F              @HCCINIT_Key .section 'data'
  14  000F              #pragma debug struct_end
  14  000F              #pragma debug struct_end
  14  000F              #pragma debug union_end
  14  000F              #pragma debug union_end
  14  000F              #pragma debug variable 46 1 ___pc "__pc" 1
  14  000F              #pragma debug struct_end
  14  000F              #pragma debug struct_end
  14  000F              #pragma debug union_end
  14  000F              #pragma debug union_end
  14  000F              #pragma debug variable 48 1 ___pcc "__pcc" 1
  14  000F              #pragma debug struct_end
  14  000F              #pragma debug struct_end
  14  000F              #pragma debug union_end
  14  000F              #pragma debug union_end
  14  000F              #pragma debug variable 50 1 ___pcpu "__pcpu" 1
  14  000F              #pragma debug struct_end
  14  000F              #pragma debug struct_end
  14  000F              #pragma debug union_end
  14  000F              #pragma debug union_end
  14  000F              #pragma debug variable 52 1 ___pd "__pd" 1
  14  000F              #pragma debug struct_end
  14  000F              #pragma debug struct_end
  14  000F              #pragma debug union_end
  14  000F              #pragma debug union_end
  14  000F              #pragma debug variable 54 1 ___pdc "__pdc" 1
  14  000F              #pragma debug struct_end
  14  000F              #pragma debug struct_end
  14  000F              #pragma debug union_end
  14  000F              #pragma debug union_end
  14  000F              #pragma debug variable 56 1 ___pdpu "__pdpu" 1
  14  000F              #pragma debug struct_end
  14  000F              #pragma debug struct_end
  14  000F              #pragma debug union_end
  14  000F              #pragma debug union_end
  14  000F              #pragma debug variable 58 1 ___pe "__pe" 1
  14  000F              #pragma debug struct_end
  14  000F              #pragma debug struct_end
匡숭：Key.c        긍陋포경굶 HGASM 0202 女늴14

  14  000F              #pragma debug union_end
  14  000F              #pragma debug union_end
  14  000F              #pragma debug variable 60 1 ___pec "__pec" 1
  14  000F              #pragma debug struct_end
  14  000F              #pragma debug struct_end
  14  000F              #pragma debug union_end
  14  000F              #pragma debug union_end
  14  000F              #pragma debug variable 62 1 ___pepu "__pepu" 1
  14  000F              
  14  000F              ; output external variables
  14  000F              extern _UART0_433MHz_Pairing_Code_Flag:byte
  14  000F              extern _UART1_WIFI_Config_Flag:byte
  14  000F              extern _Handle_ADD:near
  14  000F              extern _Handle_MIN:near
  14  000F              
  14  000F              ; 
  14  000F              ; Generated by holtek-gcc v3.23, Wed Apr 08 12:56:32 2026
  14  000F              ; Rebuild 1114
  14  000F              ; end of file


        0 Errors, 0