匡숭：system.h     긍陋포경굶 HGASM 0202 女늴1


   1  0000              ; Generated by holtek-gcc v3.23, Wed Apr 08 12:56:36 2026
   2  0000              ; 
   3  0000              ; Configuration:
   4  0000              ;       with long instruction
   5  0000              ;       Multi-ROM, Multi-RAM
   6  0000              ;       bits_per_rom_unit:16
   7  0000              ;       with mp1
   8  0000              ;       with tbhp, address(0x9)
   9  0000              ;          Use tabrd-const
  10  0000              ;       
  11  0000              ; SFR address of long-instruction arch:
  12  0000              ;    mp0 = -1,1,0
  13  0000              ;    mp1 = 4,3,2
  14  0000              ;    mp2 = 14,13,12
  15  0000              ;    tbp = 9,7,8
  16  0000              ;    acc = 5
  17  0000              ;    pcl = 6
  18  0000              ;    status = 10
  19  0000              ;    bp = 11
  20  0000              ;    intc = 16
  21  0000              ;       
  22  0000              ;       
  23  0000              ; use 'tabrdc' instead of 'tabrd'
  24  0000              ;       
  25  0000              
  26  0000              #pragma translator "holtek-gcc 4.6.4" "3.23" "build 20130711"
  27  0000              ; Rebuild 1114
  28  0000              
  29  0000              ir equ [2]
  30  0000              mp equ [3]
  31  0000              sbp equ [4]
  32  0000              acc equ [5]
  33  0000              bp equ [11]
  34  0000              tblp equ [7]
  35  0000              tbhp equ [9]
  36  0000              status equ [10]
  37  0000              c equ [10].0
  38  0000              ac equ [10].1
  39  0000              z equ [10].2
  40  0000              ov equ [10].3
  41  0000              cz equ [10].6
  42  0000              sc equ [10].7
  43  0000              intc equ [16]
  44  0000              mduwr0 equ [59h]
  45  0000              mduwr1 equ [5ah]
  46  0000              mduwr2 equ [5bh]
  47  0000              mduwr3 equ [5ch]
  48  0000              mduwr4 equ [5dh]
  49  0000              mduwr5 equ [5eh]
  50  0000              mduwrctrl equ [5fh]
  51  0000              
  52  0000              extern ra:byte
  53  0000              extern rb:byte
  54  0000              extern rc:byte
  55  0000              extern rd:byte
  56  0000              extern re:byte
  57  0000              extern rf:byte
  58  0000              extern rg:byte
  59  0000              extern rh:byte
匡숭：system.ASM   긍陋포경굶 HGASM 0202 女늴2

  60  0000              extern _Crom2Prom:near
  61  0000              extern _Crom2PromNext:near
  62  0000              
  63  0000              RAMBANK 0 @BITDATASEC, @BITDATASEC1
  64  0000              @HCCINIT	.section 'data'
  65  0000              @HCCINIT0	.section 'data'
  66  0000              @BITDATASEC	 .section 'data'
  67  0000              @BITDATASEC1	 .section 'data'
  68  0000              
  69  0000              #pragma debug scope 1 1
  70  0000              public _set_wifi_uart_byte
  71  0000              #pragma debug scope 2 1

  35  0000              #line 35 "D:\zpw\귄\2362A\project\system.c"
  35  0000              _set_wifi_uart_byte .section 'code'
  35  0000              _set_wifi_uart_byte proc
  35  0000              public _set_wifi_uart_byte_2
  35  0000  0003[           local _set_wifi_uart_byte_2 db 3 dup(?)	; 3,0
            00
            ]
  35  0003              #pragma debug variable 10 2 _set_wifi_uart_byte_2+0 "dest"
  35  0003              #pragma debug variable 8 2 _set_wifi_uart_byte_2+2 "byte"
  38  0003              #line 38 "D:\zpw\귄\2362A\project\system.c"
  38  0000  0F00     R  	mov a,low (offset _wifi_uart_tx_buf+6)
  38  0001  0300     R  	add a,_set_wifi_uart_byte_2[0]
  38  0002  0083        	mov mp,a
  38  0003  0F00     R  	mov a,high (offset _wifi_uart_tx_buf+6)
  38  0004  1300     R  	adc a,_set_wifi_uart_byte_2[1]
  38  0005  0084        	mov sbp,a
  38  0006  0700     R  	mov a,_set_wifi_uart_byte_2[2]
  38  0007  0082        	mov ir,a
  42  0008              #line 42 "D:\zpw\귄\2362A\project\system.c"
  42  0008  0F01        	mov a,1
  42  0009  0300     R  	add a,_set_wifi_uart_byte_2[0]
  42  000A  0080     E  	mov ra,a
  42  000B  0F00        	mov a,0
  42  000C  1300     R  	adc a,_set_wifi_uart_byte_2[1]
  42  000D  0080     E  	mov rb,a
  42  000E  0003        	ret
  42  000F              _set_wifi_uart_byte endp
  42  000F              #line 42 "D:\zpw\귄\2362A\project\system.c"
  42  000F              #pragma debug scope 1 1
  42  000F              public _set_wifi_uart_buffer
  42  000F              #pragma debug scope 3 1
  52  000F              #line 52 "D:\zpw\귄\2362A\project\system.c"
  52  0000              _set_wifi_uart_buffer .section 'code'
  52  0000              _set_wifi_uart_buffer proc
  52  0000              public _set_wifi_uart_buffer_2
  52  0000  0006[           local _set_wifi_uart_buffer_2 db 6 dup(?)	; 6,0
            00
            ]
  52  0006              #pragma debug variable 10 3 _set_wifi_uart_buffer_2+0 "dest"
  52  0006              #pragma debug pointer 42 8 3
  52  0006              #pragma debug pointer 42 8 3
  52  0006              #pragma debug variable 42 3 _set_wifi_uart_buffer_2+2 "src"
  52  0006              #pragma debug variable 10 3 _set_wifi_uart_buffer_2+4 "len"
  55  0006              #line 55 "D:\zpw\귄\2362A\project\system.c"
  55  0000  0700     R  	mov a,_set_wifi_uart_buffer_2[4]
  55  0001  0080     E  	mov _my_memcpy_2[4],a
  55  0002  0700     R  	mov a,_set_wifi_uart_buffer_2[5]
匡숭：system.c     긍陋포경굶 HGASM 0202 女늴3

  55  0003  0080     E  	mov _my_memcpy_2[5],a
  55  0004  0700     R  	mov a,_set_wifi_uart_buffer_2[2]
  55  0005  0080     E  	mov _my_memcpy_2[2],a
  55  0006  0700     R  	mov a,_set_wifi_uart_buffer_2[3]
  55  0007  0080     E  	mov _my_memcpy_2[3],a
  55  0008  0F00     R  	mov a,low (offset _wifi_uart_tx_buf+6)
  55  0009  0300     R  	add a,_set_wifi_uart_buffer_2[0]
  55  000A  0080     E  	mov _my_memcpy_2[0],a
  55  000B  0F00     R  	mov a,high (offset _wifi_uart_tx_buf+6)
  55  000C  1300     R  	adc a,_set_wifi_uart_buffer_2[1]
  55  000D  0080     E  	mov _my_memcpy_2[1],a
  55  000E              	fcall _my_memcpy
  59  0015              #line 59 "D:\zpw\귄\2362A\project\system.c"
  59  0015  0700     R  	mov a,_set_wifi_uart_buffer_2[4]
  59  0016  0300     R  	add a,_set_wifi_uart_buffer_2[0]
  59  0017  0080     E  	mov ra,a
  59  0018  0700     R  	mov a,_set_wifi_uart_buffer_2[5]
  59  0019  1300     R  	adc a,_set_wifi_uart_buffer_2[1]
  59  001A  0080     E  	mov rb,a
  59  001B  0003        	ret
  59  001C              _set_wifi_uart_buffer endp
  59  001C              #line 59 "D:\zpw\귄\2362A\project\system.c"
  59  001C              #pragma debug scope 1 1
  59  001C              public _get_check_sum
  59  001C              #pragma debug scope 4 1
  68  001C              #line 68 "D:\zpw\귄\2362A\project\system.c"
  68  0000              _get_check_sum .section 'code'
  68  0000              _get_check_sum proc
  68  0000              public _get_check_sum_2
  68  0000  0004[           local _get_check_sum_2 db 4 dup(?)	; 4,0
            00
            ]
  68  0004              #pragma debug pointer 43 8 4
  68  0004              #pragma debug pointer 43 8 4
  68  0004              #pragma debug variable 43 4 _get_check_sum_2+0 "pack"
  68  0004              #pragma debug variable 10 4 _get_check_sum_2+2 "pack_len"
  68  0000  0700     R  	mov a,_get_check_sum_2[0]
  68  0001  0080     E  	mov rb,a
  68  0002  0700     R  	mov a,_get_check_sum_2[1]
  68  0003  0080     E  	mov rc,a
  68  0004  0700     R  	mov a,_get_check_sum_2[2]
  68  0005  0300     E  	add a,rb
  68  0006  0080     E  	mov rd,a
  68  0007  0700     R  	mov a,_get_check_sum_2[3]
  68  0008  1300     E  	adc a,rc
  68  0009  0080     E  	mov re,a
  70  000A              #line 70 "D:\zpw\귄\2362A\project\system.c"
  70  000A  1F00     E  	clr ra
  70  000B              _L4:
  72  000B              #line 72 "D:\zpw\귄\2362A\project\system.c"
  72  000B  0700     E  	mov a,rb
  72  000C  0200     E  	sub a,rd
  72  000D  0700     E  	mov a,rc
  72  000E  1200     E  	sbc a,re
  72  000F  3F0A        	sz cz
  72  0010  2800     R  	jmp _L7
  73  0011              #line 73 "D:\zpw\귄\2362A\project\system.c"
  73  0011  0700     E  	mov a,rb
  73  0012  0083        	mov mp,a
  73  0013  0700     E  	mov a,rc
匡숭：system.c     긍陋포경굶 HGASM 0202 女늴4

  73  0014  0084        	mov sbp,a
  73  0015              	fcall _Crom2Prom
  73  001C  0080     E  	mov rf,a
  73  001D  0700     E  	mov a,rf
  73  001E  0380     E  	addm a,ra
  73  001F  1480     E  	inc rb
  73  0020  3D0A        	sz z
  73  0021  1480     E  	inc rc
  73  0022  2800     R  	jmp _L4
  73  0023              _L7:
  77  0023              #line 77 "D:\zpw\귄\2362A\project\system.c"
  77  0023  0700     E  	mov a,ra
  77  0024  0003        	ret
  77  0025              _get_check_sum endp
  77  0025              #line 77 "D:\zpw\귄\2362A\project\system.c"
  77  0025              #pragma debug scope 1 1
  77  0025              public _wifi_uart_write_frame
  77  0025              #pragma debug scope 5 1
 105  0025              #line 105 "D:\zpw\귄\2362A\project\system.c"
 105  0000              _wifi_uart_write_frame .section 'code'
 105  0000              _wifi_uart_write_frame proc
 105  0000              public _wifi_uart_write_frame_2
 105  0000  0008[           local _wifi_uart_write_frame_2 db 8 dup(?)	; 3,5
            00
            ]
 105  0000  0080     E  	mov ra,a
 105  0001  0080     R  	mov _wifi_uart_write_frame_2[3],a
 105  0002              #pragma debug variable 8 5 _wifi_uart_write_frame_2+3 "fr_type"
 105  0002              #pragma debug variable 8 5 _wifi_uart_write_frame_2+0 "fr_ver"
 105  0002              #pragma debug variable 10 5 _wifi_uart_write_frame_2+1 "len"
 108  0002              #line 108 "D:\zpw\귄\2362A\project\system.c"
 108  0002  0F55        	mov a,85
 108  0003  0080     R  	mov _wifi_uart_tx_buf[0],a
 109  0004              #line 109 "D:\zpw\귄\2362A\project\system.c"
 109  0004  0FAA        	mov a,170
 109  0005  0080     R  	mov _wifi_uart_tx_buf[1],a
 110  0006              #line 110 "D:\zpw\귄\2362A\project\system.c"
 110  0006  0700     R  	mov a,_wifi_uart_write_frame_2[0]
 110  0007  0080     R  	mov _wifi_uart_tx_buf[2],a
 111  0008              #line 111 "D:\zpw\귄\2362A\project\system.c"
 111  0008  0700     E  	mov a,ra
 111  0009  0080     R  	mov _wifi_uart_tx_buf[3],a
 112  000A              #line 112 "D:\zpw\귄\2362A\project\system.c"
 112  000A  0700     R  	mov a,_wifi_uart_write_frame_2[2]
 112  000B  0080     R  	mov _wifi_uart_tx_buf[4],a
 113  000C              #line 113 "D:\zpw\귄\2362A\project\system.c"
 113  000C  0700     R  	mov a,_wifi_uart_write_frame_2[1]
 113  000D  0080     R  	mov _wifi_uart_tx_buf[5],a
 115  000E              #line 115 "D:\zpw\귄\2362A\project\system.c"
 115  000E  0F07        	mov a,7
 115  000F  0300     R  	add a,_wifi_uart_write_frame_2[1]
 115  0010  0080     R  	mov _wifi_uart_write_frame_2[6],a
 115  0011  0F00        	mov a,0
 115  0012  1300     R  	adc a,_wifi_uart_write_frame_2[2]
 115  0013  0080     R  	mov _wifi_uart_write_frame_2[7],a
 116  0014              #line 116 "D:\zpw\귄\2362A\project\system.c"
 116  0014  0F06        	mov a,6
 116  0015  0300     R  	add a,_wifi_uart_write_frame_2[1]
 116  0016  0080     E  	mov rd,a
 116  0017  0F00        	mov a,0
匡숭：system.c     긍陋포경굶 HGASM 0202 女늴5

 116  0018  1300     R  	adc a,_wifi_uart_write_frame_2[2]
 116  0019  0080     E  	mov re,a
 116  001A              #pragma debug scope 6 5
 116  001A              ;begin block, line: 116.-1
 116  001A              #pragma debug scope 7 6
 116  001A              ;begin block, line: 116.-1
  70  001A              #line 70 "D:\zpw\귄\2362A\project\system.c"
  70  001A  1F00     E  	clr ra
  72  001B              #line 72 "D:\zpw\귄\2362A\project\system.c"
  72  001B  1F00     E  	clr rb
  72  001C  1F00     E  	clr rc
  72  001D              _L9:
  72  001D              #line 72 "D:\zpw\귄\2362A\project\system.c"
  72  001D  0700     E  	mov a,rb
  72  001E  0200     E  	sub a,rd
  72  001F  0700     E  	mov a,rc
  72  0020  1200     E  	sbc a,re
  72  0021  3C0A        	sz c
  72  0022  2800     R  	jmp _L17
  73  0023              #line 73 "D:\zpw\귄\2362A\project\system.c"
  73  0023  0F00     R  	mov a,low offset _wifi_uart_tx_buf
  73  0024  0300     E  	add a,rb
  73  0025  0083        	mov mp,a
  73  0026  0F00     R  	mov a,high offset _wifi_uart_tx_buf
  73  0027  1300     E  	adc a,rc
  73  0028  0084        	mov sbp,a
  73  0029              	fcall _Crom2Prom
  73  0030  0080     E  	mov rf,a
  73  0031  0700     E  	mov a,rf
  73  0032  0380     E  	addm a,ra
  72  0033              #line 72 "D:\zpw\귄\2362A\project\system.c"
  72  0033  1480     E  	inc rb
  72  0034  3D0A        	sz z
  72  0035  1480     E  	inc rc
  72  0036  2800     R  	jmp _L9
  72  0037              _L17:
  72  0037              #pragma debug scope 6 5
  72  0037              #pragma debug scope 5 1
 117  0037              #line 117 "D:\zpw\귄\2362A\project\system.c"
 117  0037  0F00     R  	mov a,low offset _wifi_uart_tx_buf
 117  0038  0300     E  	add a,rd
 117  0039  0083        	mov mp,a
 117  003A  0F00     R  	mov a,high offset _wifi_uart_tx_buf
 117  003B  1300     E  	adc a,re
 117  003C  0084        	mov sbp,a
 117  003D  0700     E  	mov a,ra
 117  003E  0082        	mov ir,a
 117  003F              #pragma debug scope 8 5
 117  003F              ;begin block, line: 117.-1
 117  003F              #pragma debug scope 9 8
 117  003F              ;begin block, line: 117.-1
  87  003F              #line 87 "D:\zpw\귄\2362A\project\system.c"
  87  003F  0700     R  	mov a,_wifi_uart_write_frame_2[6]
  87  0040  0500     R  	or a,_wifi_uart_write_frame_2[7]
  87  0041  3D0A        	sz z
  87  0042  2800     R  	jmp _L8
  87  0043  1F00     R  	clr _wifi_uart_write_frame_2[4]
  87  0044  1F00     R  	clr _wifi_uart_write_frame_2[5]
  87  0045              _L12:
  92  0045              #line 92 "D:\zpw\귄\2362A\project\system.c"
匡숭：system.c     긍陋포경굶 HGASM 0202 女늴6

  92  0045  0F00     R  	mov a,low offset _wifi_uart_tx_buf
  92  0046  0300     R  	add a,_wifi_uart_write_frame_2[4]
  92  0047  0083        	mov mp,a
  92  0048  0F00     R  	mov a,high offset _wifi_uart_tx_buf
  92  0049  1300     R  	adc a,_wifi_uart_write_frame_2[5]
  92  004A  0084        	mov sbp,a
  92  004B              	fcall _Crom2Prom
  92  0052              	fcall _uart_transmit_output
  92  0059  1480     R  	inc _wifi_uart_write_frame_2[4]
  92  005A  3D0A        	sz z
  92  005B  1480     R  	inc _wifi_uart_write_frame_2[5]
  91  005C              #line 91 "D:\zpw\귄\2362A\project\system.c"
  91  005C  0700     R  	mov a,_wifi_uart_write_frame_2[4]
  91  005D  0200     R  	sub a,_wifi_uart_write_frame_2[6]
  91  005E  0700     R  	mov a,_wifi_uart_write_frame_2[5]
  91  005F  1200     R  	sbc a,_wifi_uart_write_frame_2[7]
  91  0060  3B0A        	snz cz
  91  0061  2800     R  	jmp _L12
  91  0062              _L8:
  91  0062              #pragma debug scope 8 5
  91  0062              #pragma debug scope 5 1
  91  0062  0003        	ret
  91  0063              _wifi_uart_write_frame endp
  91  0063              #line 91 "D:\zpw\귄\2362A\project\system.c"
  91  0063              #pragma debug scope 1 1
  91  0000              @crom	.section 'crom'
  91  0000              _LC0:
  91  0000              	db 07bh,022h,070h,022h,03ah,022h,00h
  91  0004              @crom	.section 'crom'
  91  0004              _LC1:
  91  0004              	db 067h,037h,06ah,062h,062h,06ch,077h,077h,032h,039h
  91  0009              	db 063h,068h,063h,031h,076h,06eh,00h
  91  000C              @crom	.section 'crom'
  91  000C              _LC2:
  91  000C              	db 022h,02ch,022h,076h,022h,03ah,022h,00h
  91  0010              @crom	.section 'crom'
  91  0010              _LC3:
  91  0010              	db 031h,02eh,030h,02eh,030h,00h
  91  0013              @crom	.section 'crom'
  91  0013              _LC4:
  91  0013              	db 022h,02ch,022h,06dh,022h,03ah,00h
  91  0017              @crom	.section 'crom'
  91  0017              _LC5:
  91  0017              	db 032h,00h
  91  0018              @crom	.section 'crom'
  91  0018              _LC6:
  91  0018              	db 07dh,00h
  91  0019              public _data_handle
  91  0019              #pragma debug scope 10 1
 392  0019              #line 392 "D:\zpw\귄\2362A\project\system.c"
 392  0000              _data_handle .section 'code'
 392  0000              _data_handle proc
 392  0000              public _data_handle_2
 392  0000  0012[           local _data_handle_2 db 18 dup(?)	; 2,16
            00
            ]
 392  0012              #pragma debug variable 10 10 _data_handle_2+0 "offset"
 392  0012              #pragma debug variable 10 10 _data_handle_2+4 "i"
 392  0012              #pragma debug variable 10 10 _data_handle_2+11 "total_len"
 392  0012              #pragma debug variable 8 10 _data_handle_2+2 "cmd_type"
匡숭：system.c     긍陋포경굶 HGASM 0202 女늴7

 406  0012              #line 406 "D:\zpw\귄\2362A\project\system.c"
 406  0000  0F00     R  	mov a,low (offset _wifi_data_process_buf+3)
 406  0001  0300     R  	add a,_data_handle_2[0]
 406  0002  0083        	mov mp,a
 406  0003  0F00     R  	mov a,high (offset _wifi_data_process_buf+3)
 406  0004  1300     R  	adc a,_data_handle_2[1]
 406  0005  0084        	mov sbp,a
 406  0006              	fcall _Crom2Prom
 406  000D  0080     R  	mov _data_handle_2[2],a
 424  000E              #line 424 "D:\zpw\귄\2362A\project\system.c"
 424  000E  0700     R  	mov a,_data_handle_2[2]
 424  000F  0A00        	sub a,0
 424  0010  3D0A        	sz z
 424  0011  2800     R  	jmp _L20
 424  0012  0A01        	sub a,(1)-(0)
 424  0013  3D0A        	sz z
 424  0014  2800     R  	jmp _L21
 424  0015              #line 424 "D:\zpw\귄\2362A\project\system.c"
 424  0015  0700     R  	mov a,_data_handle_2[2]
 424  0016  0A02        	sub a,2
 424  0017  3D0A        	sz z
 424  0018  2800     R  	jmp _L22
 424  0019  0A01        	sub a,(3)-(2)
 424  001A  3D0A        	sz z
 424  001B  2800     R  	jmp _L23
 424  001C  0700     R  	mov a,_data_handle_2[2]
 424  001D  0A04        	sub a,4
 424  001E  3D0A        	sz z
 424  001F  2800     R  	jmp _L24
 424  0020  0A01        	sub a,(5)-(4)
 424  0021  3D0A        	sz z
 424  0022  2800     R  	jmp _L25
 424  0023  0700     R  	mov a,_data_handle_2[2]
 424  0024  0A06        	sub a,6
 424  0025  3D0A        	sz z
 424  0026  2800     R  	jmp _L26
 424  0027  0700     R  	mov a,_data_handle_2[2]
 424  0028  0A08        	sub a,8
 424  0029  390A        	snz z
 424  002A  2800     R  	jmp _L18
 479  002B              #line 479 "D:\zpw\귄\2362A\project\system.c"
 479  002B              	fcall _all_data_update
 480  0032              #line 480 "D:\zpw\귄\2362A\project\system.c"
 480  0032  2800     R  	jmp _L18
 480  0033              _L20:
 480  0033              #pragma debug scope 11 10
 480  0033              ;begin block, line: 480.-1
 480  0033              #pragma debug scope 12 11
 480  0033              ;begin block, line: 480.-1
 132  0033              #line 132 "D:\zpw\귄\2362A\project\system.c"
 132  0033  1080     R  	sz ___mcu_reset_state_1097[0]
 132  0034  2800     R  	jmp _L28
 133  0035              #line 133 "D:\zpw\귄\2362A\project\system.c"
 133  0035  1F00     R  	clr _set_wifi_uart_byte_2[2]
 133  0036  1F00     R  	clr _set_wifi_uart_byte_2[0]
 133  0037  1F00     R  	clr _set_wifi_uart_byte_2[1]
 133  0038              	fcall _set_wifi_uart_byte
 134  003F              #line 134 "D:\zpw\귄\2362A\project\system.c"
 134  003F  0F01        	mov a,1
 134  0040  0080     R  	mov ___mcu_reset_state_1097[0],a
匡숭：system.c     긍陋포경굶 HGASM 0202 女늴8

 134  0041  2800     R  	jmp _L29
 134  0042              _L28:
 136  0042              #line 136 "D:\zpw\귄\2362A\project\system.c"
 136  0042  0F01        	mov a,1
 136  0043  0080     R  	mov _set_wifi_uart_byte_2[2],a
 136  0044  1F00     R  	clr _set_wifi_uart_byte_2[0]
 136  0045  1F00     R  	clr _set_wifi_uart_byte_2[1]
 136  0046              	fcall _set_wifi_uart_byte
 136  004D              _L29:
 139  004D              #line 139 "D:\zpw\귄\2362A\project\system.c"
 139  004D  0700     E  	mov a,ra
 139  004E  0080     R  	mov _wifi_uart_write_frame_2[1],a
 139  004F  1F00     R  	clr _wifi_uart_write_frame_2[2]
 139  0050  0F03        	mov a,3
 139  0051  0080     R  	mov _wifi_uart_write_frame_2[0],a
 139  0052  0F00        	mov a,0
 139  0053  2800     R  	jmp _L39
 139  0054              _L21:
 139  0054              #pragma debug scope 11 10
 139  0054              #pragma debug scope 10 1
 139  0054              #pragma debug scope 13 10
 139  0054              ;begin block, line: 139.-1
 139  0054              #pragma debug scope 14 13
 139  0054              ;begin block, line: 139.-1
 152  0054              #line 152 "D:\zpw\귄\2362A\project\system.c"
 152  0054  0F00     R  	mov a,low offset _LC0
 152  0055  0080     E  	mov _my_strlen_2[0],a
 152  0056  0F00     R  	mov a,high offset _LC0
 152  0057  0080     E  	mov _my_strlen_2[1],a
 152  0058              	fcall _my_strlen
 152  005F  0700     E  	mov a,ra
 152  0060  0080     R  	mov _set_wifi_uart_buffer_2[4],a
 152  0061  0700     E  	mov a,rb
 152  0062  0080     R  	mov _set_wifi_uart_buffer_2[5],a
 152  0063  0F00     R  	mov a,low offset _LC0
 152  0064  0080     R  	mov _set_wifi_uart_buffer_2[2],a
 152  0065  0F00     R  	mov a,high offset _LC0
 152  0066  0080     R  	mov _set_wifi_uart_buffer_2[3],a
 152  0067  1F00     R  	clr _set_wifi_uart_buffer_2[0]
 152  0068  1F00     R  	clr _set_wifi_uart_buffer_2[1]
 152  0069              	fcall _set_wifi_uart_buffer
 152  0070  0700     E  	mov a,ra
 152  0071  0080     R  	mov _data_handle_2[2],a
 153  0072              #line 153 "D:\zpw\귄\2362A\project\system.c"
 153  0072  0F00     R  	mov a,low offset _LC1
 153  0073  0080     E  	mov _my_strlen_2[0],a
 153  0074  0F00     R  	mov a,high offset _LC1
 153  0075  0080     E  	mov _my_strlen_2[1],a
 153  0076              	fcall _my_strlen
 153  007D  0700     E  	mov a,ra
 153  007E  0080     R  	mov _set_wifi_uart_buffer_2[4],a
 153  007F  0700     E  	mov a,rb
 153  0080  0080     R  	mov _set_wifi_uart_buffer_2[5],a
 153  0081  0F00     R  	mov a,low offset _LC1
 153  0082  0080     R  	mov _set_wifi_uart_buffer_2[2],a
 153  0083  0F00     R  	mov a,high offset _LC1
 153  0084  0080     R  	mov _set_wifi_uart_buffer_2[3],a
 153  0085  0700     R  	mov a,_data_handle_2[2]
 153  0086  0080     R  	mov _set_wifi_uart_buffer_2[0],a
 153  0087  1F00     R  	clr _set_wifi_uart_buffer_2[1]
匡숭：system.c     긍陋포경굶 HGASM 0202 女늴9

 153  0088              	fcall _set_wifi_uart_buffer
 153  008F  0700     E  	mov a,ra
 153  0090  0080     R  	mov _data_handle_2[2],a
 154  0091              #line 154 "D:\zpw\귄\2362A\project\system.c"
 154  0091  0F00     R  	mov a,low offset _LC2
 154  0092  0080     E  	mov _my_strlen_2[0],a
 154  0093  0F00     R  	mov a,high offset _LC2
 154  0094  0080     E  	mov _my_strlen_2[1],a
 154  0095              	fcall _my_strlen
 154  009C  0700     E  	mov a,ra
 154  009D  0080     R  	mov _set_wifi_uart_buffer_2[4],a
 154  009E  0700     E  	mov a,rb
 154  009F  0080     R  	mov _set_wifi_uart_buffer_2[5],a
 154  00A0  0F00     R  	mov a,low offset _LC2
 154  00A1  0080     R  	mov _set_wifi_uart_buffer_2[2],a
 154  00A2  0F00     R  	mov a,high offset _LC2
 154  00A3  0080     R  	mov _set_wifi_uart_buffer_2[3],a
 154  00A4  0700     R  	mov a,_data_handle_2[2]
 154  00A5  0080     R  	mov _set_wifi_uart_buffer_2[0],a
 154  00A6  1F00     R  	clr _set_wifi_uart_buffer_2[1]
 154  00A7              	fcall _set_wifi_uart_buffer
 154  00AE  0700     E  	mov a,ra
 154  00AF  0080     R  	mov _data_handle_2[2],a
 155  00B0              #line 155 "D:\zpw\귄\2362A\project\system.c"
 155  00B0  0F00     R  	mov a,low offset _LC3
 155  00B1  0080     E  	mov _my_strlen_2[0],a
 155  00B2  0F00     R  	mov a,high offset _LC3
 155  00B3  0080     E  	mov _my_strlen_2[1],a
 155  00B4              	fcall _my_strlen
 155  00BB  0700     E  	mov a,ra
 155  00BC  0080     R  	mov _set_wifi_uart_buffer_2[4],a
 155  00BD  0700     E  	mov a,rb
 155  00BE  0080     R  	mov _set_wifi_uart_buffer_2[5],a
 155  00BF  0F00     R  	mov a,low offset _LC3
 155  00C0  0080     R  	mov _set_wifi_uart_buffer_2[2],a
 155  00C1  0F00     R  	mov a,high offset _LC3
 155  00C2  0080     R  	mov _set_wifi_uart_buffer_2[3],a
 155  00C3  0700     R  	mov a,_data_handle_2[2]
 155  00C4  0080     R  	mov _set_wifi_uart_buffer_2[0],a
 155  00C5  1F00     R  	clr _set_wifi_uart_buffer_2[1]
 155  00C6              	fcall _set_wifi_uart_buffer
 155  00CD  0700     E  	mov a,ra
 155  00CE  0080     R  	mov _data_handle_2[2],a
 156  00CF              #line 156 "D:\zpw\귄\2362A\project\system.c"
 156  00CF  0F00     R  	mov a,low offset _LC4
 156  00D0  0080     E  	mov _my_strlen_2[0],a
 156  00D1  0F00     R  	mov a,high offset _LC4
 156  00D2  0080     E  	mov _my_strlen_2[1],a
 156  00D3              	fcall _my_strlen
 156  00DA  0700     E  	mov a,ra
 156  00DB  0080     R  	mov _set_wifi_uart_buffer_2[4],a
 156  00DC  0700     E  	mov a,rb
 156  00DD  0080     R  	mov _set_wifi_uart_buffer_2[5],a
 156  00DE  0F00     R  	mov a,low offset _LC4
 156  00DF  0080     R  	mov _set_wifi_uart_buffer_2[2],a
 156  00E0  0F00     R  	mov a,high offset _LC4
 156  00E1  0080     R  	mov _set_wifi_uart_buffer_2[3],a
 156  00E2  0700     R  	mov a,_data_handle_2[2]
 156  00E3  0080     R  	mov _set_wifi_uart_buffer_2[0],a
 156  00E4  1F00     R  	clr _set_wifi_uart_buffer_2[1]
匡숭：system.c     긍陋포경굶 HGASM 0202 女늴10

 156  00E5              	fcall _set_wifi_uart_buffer
 156  00EC  0700     E  	mov a,ra
 156  00ED  0080     R  	mov _data_handle_2[2],a
 157  00EE              #line 157 "D:\zpw\귄\2362A\project\system.c"
 157  00EE  0F00     R  	mov a,low offset _LC5
 157  00EF  0080     E  	mov _my_strlen_2[0],a
 157  00F0  0F00     R  	mov a,high offset _LC5
 157  00F1  0080     E  	mov _my_strlen_2[1],a
 157  00F2              	fcall _my_strlen
 157  00F9  0700     E  	mov a,ra
 157  00FA  0080     R  	mov _set_wifi_uart_buffer_2[4],a
 157  00FB  0700     E  	mov a,rb
 157  00FC  0080     R  	mov _set_wifi_uart_buffer_2[5],a
 157  00FD  0F00     R  	mov a,low offset _LC5
 157  00FE  0080     R  	mov _set_wifi_uart_buffer_2[2],a
 157  00FF  0F00     R  	mov a,high offset _LC5
 157  0100  0080     R  	mov _set_wifi_uart_buffer_2[3],a
 157  0101  0700     R  	mov a,_data_handle_2[2]
 157  0102  0080     R  	mov _set_wifi_uart_buffer_2[0],a
 157  0103  1F00     R  	clr _set_wifi_uart_buffer_2[1]
 157  0104              	fcall _set_wifi_uart_buffer
 157  010B  0700     E  	mov a,ra
 157  010C  0080     R  	mov _data_handle_2[2],a
 175  010D              #line 175 "D:\zpw\귄\2362A\project\system.c"
 175  010D  0F00     R  	mov a,low offset _LC6
 175  010E  0080     E  	mov _my_strlen_2[0],a
 175  010F  0F00     R  	mov a,high offset _LC6
 175  0110  0080     E  	mov _my_strlen_2[1],a
 175  0111              	fcall _my_strlen
 175  0118  0700     E  	mov a,ra
 175  0119  0080     R  	mov _set_wifi_uart_buffer_2[4],a
 175  011A  0700     E  	mov a,rb
 175  011B  0080     R  	mov _set_wifi_uart_buffer_2[5],a
 175  011C  0F00     R  	mov a,low offset _LC6
 175  011D  0080     R  	mov _set_wifi_uart_buffer_2[2],a
 175  011E  0F00     R  	mov a,high offset _LC6
 175  011F  0080     R  	mov _set_wifi_uart_buffer_2[3],a
 175  0120  0700     R  	mov a,_data_handle_2[2]
 175  0121  0080     R  	mov _set_wifi_uart_buffer_2[0],a
 175  0122  1F00     R  	clr _set_wifi_uart_buffer_2[1]
 175  0123              	fcall _set_wifi_uart_buffer
 177  012A              #line 177 "D:\zpw\귄\2362A\project\system.c"
 177  012A  0700     E  	mov a,ra
 177  012B  0080     R  	mov _wifi_uart_write_frame_2[1],a
 177  012C  1F00     R  	clr _wifi_uart_write_frame_2[2]
 177  012D  0F03        	mov a,3
 177  012E  0080     R  	mov _wifi_uart_write_frame_2[0],a
 177  012F  0F01        	mov a,1
 177  0130              _L39:
 177  0130              	fcall _wifi_uart_write_frame
 177  0137  2800     R  	jmp _L18
 177  0138              _L22:
 177  0138              #pragma debug scope 13 10
 177  0138              #pragma debug scope 10 1
 177  0138              #pragma debug scope 15 10
 177  0138              ;begin block, line: 177.-1
 177  0138              #pragma debug scope 16 15
 177  0138              ;begin block, line: 177.-1
 196  0138              #line 196 "D:\zpw\귄\2362A\project\system.c"
 196  0138  1F00     R  	clr _wifi_uart_write_frame_2[1]
匡숭：system.c     긍陋포경굶 HGASM 0202 女늴11

 196  0139  1F00     R  	clr _wifi_uart_write_frame_2[2]
 196  013A  0F03        	mov a,3
 196  013B  0080     R  	mov _wifi_uart_write_frame_2[0],a
 196  013C  0F02        	mov a,2
 196  013D  2800     R  	jmp _L39
 196  013E              _L23:
 196  013E              #pragma debug scope 15 10
 196  013E              #pragma debug scope 10 1
 440  013E              #line 440 "D:\zpw\귄\2362A\project\system.c"
 440  013E  0F00     R  	mov a,low (offset _wifi_data_process_buf+6)
 440  013F  0300     R  	add a,_data_handle_2[0]
 440  0140  0083        	mov mp,a
 440  0141  0F00     R  	mov a,high (offset _wifi_data_process_buf+6)
 440  0142  1300     R  	adc a,_data_handle_2[1]
 440  0143  0084        	mov sbp,a
 440  0144              	fcall _Crom2Prom
 440  014B  0080     R  	mov _wifi_work_state[0],a
 441  014C              #line 441 "D:\zpw\귄\2362A\project\system.c"
 441  014C  1F00     R  	clr _wifi_uart_write_frame_2[1]
 441  014D  1F00     R  	clr _wifi_uart_write_frame_2[2]
 441  014E  0F03        	mov a,3
 441  014F  0080     R  	mov _wifi_uart_write_frame_2[0],a
 441  0150  0F03        	mov a,3
 441  0151  2800     R  	jmp _L39
 441  0152              _L24:
 451  0152              #line 451 "D:\zpw\귄\2362A\project\system.c"
 451  0152  0F01        	mov a,1
 451  0153  0080     R  	mov _reset_wifi_flag[0],a
 452  0154              #line 452 "D:\zpw\귄\2362A\project\system.c"
 452  0154  2800     R  	jmp _L18
 452  0155              _L25:
 455  0155              #line 455 "D:\zpw\귄\2362A\project\system.c"
 455  0155  0F01        	mov a,1
 455  0156  0080     R  	mov _set_wifimode_flag[0],a
 456  0157              #line 456 "D:\zpw\귄\2362A\project\system.c"
 456  0157  2800     R  	jmp _L18
 456  0158              _L26:
 460  0158              #line 460 "D:\zpw\귄\2362A\project\system.c"
 460  0158  0F00     R  	mov a,low (offset _wifi_data_process_buf+4)
 460  0159  0300     R  	add a,_data_handle_2[0]
 460  015A  0083        	mov mp,a
 460  015B  0F00     R  	mov a,high (offset _wifi_data_process_buf+4)
 460  015C  1300     R  	adc a,_data_handle_2[1]
 460  015D  0084        	mov sbp,a
 460  015E              	fcall _Crom2Prom
 460  0165  0080     E  	mov rd,a
 460  0166  0F00     R  	mov a,low (offset _wifi_data_process_buf+5)
 460  0167  0300     R  	add a,_data_handle_2[0]
 460  0168  0083        	mov mp,a
 460  0169  0F00     R  	mov a,high (offset _wifi_data_process_buf+5)
 460  016A  1300     R  	adc a,_data_handle_2[1]
 460  016B  0084        	mov sbp,a
 460  016C              	fcall _Crom2Prom
 460  0173  0080     E  	mov ra,a
 460  0174  0700     E  	mov a,rd
 460  0175  0080     E  	mov rc,a
 460  0176  1F00     E  	clr rb
 460  0177  0700     E  	mov a,rc
 460  0178  0080     R  	mov _data_handle_2[12],a
 460  0179  0700     E  	mov a,ra
匡숭：system.c     긍陋포경굶 HGASM 0202 女늴12

 460  017A  0500     E  	or a,rb
 460  017B  0080     R  	mov _data_handle_2[11],a
 462  017C              #line 462 "D:\zpw\귄\2362A\project\system.c"
 462  017C  1F00     R  	clr _data_handle_2[4]
 462  017D  1F00     R  	clr _data_handle_2[5]
 462  017E              _L30:
 462  017E  0700     R  	mov a,_data_handle_2[4]
 462  017F  0200     R  	sub a,_data_handle_2[11]
 462  0180  0700     R  	mov a,_data_handle_2[5]
 462  0181  1200     R  	sbc a,_data_handle_2[12]
 462  0182  3C0A        	sz c
 462  0183  2800     R  	jmp _L18
 463  0184              #line 463 "D:\zpw\귄\2362A\project\system.c"
 463  0184  0700     R  	mov a,_data_handle_2[0]
 463  0185  0300     R  	add a,_data_handle_2[4]
 463  0186  0080     E  	mov rb,a
 463  0187  0700     R  	mov a,_data_handle_2[1]
 463  0188  1300     R  	adc a,_data_handle_2[5]
 463  0189  0080     E  	mov rc,a
 463  018A  0F00     R  	mov a,low (offset _wifi_data_process_buf+8)
 463  018B  0300     E  	add a,rb
 463  018C  0083        	mov mp,a
 463  018D  0F00     R  	mov a,high (offset _wifi_data_process_buf+8)
 463  018E  1300     E  	adc a,rc
 463  018F  0084        	mov sbp,a
 463  0190              	fcall _Crom2Prom
 463  0197  0080     R  	mov _data_handle_2[7],a
 463  0198  1F00     R  	clr _data_handle_2[6]
 464  0199              #line 464 "D:\zpw\귄\2362A\project\system.c"
 464  0199  0F00     R  	mov a,low (offset _wifi_data_process_buf+9)
 464  019A  0300     E  	add a,rb
 464  019B  0083        	mov mp,a
 464  019C  0F00     R  	mov a,high (offset _wifi_data_process_buf+9)
 464  019D  1300     E  	adc a,rc
 464  019E  0084        	mov sbp,a
 464  019F              	fcall _Crom2Prom
 464  01A6  0080     E  	mov ra,a
 464  01A7  0700     E  	mov a,ra
 464  01A8  0080     R  	mov _data_handle_2[13],a
 464  01A9  1F00     R  	clr _data_handle_2[14]
 466  01AA              #line 466 "D:\zpw\귄\2362A\project\system.c"
 466  01AA  0F00     R  	mov a,low (offset _wifi_data_process_buf+6)
 466  01AB  0300     E  	add a,rb
 466  01AC  0080     R  	mov _data_handle_2[2],a
 466  01AD  0F00     R  	mov a,high (offset _wifi_data_process_buf+6)
 466  01AE  1300     E  	adc a,rc
 466  01AF  0080     R  	mov _data_handle_2[3],a
 466  01B0              #pragma debug scope 17 10
 466  01B0              ;begin block, line: 466.-1
 466  01B0              #pragma debug scope 18 17
 466  01B0              ;begin block, line: 466.-1
 466  01B0              #pragma debug variable 8 18 _data_handle_2+8 "dp_id"
 466  01B0              #pragma debug variable 8 18 _data_handle_2+15 "dp_type"
 230  01B0              #line 230 "D:\zpw\귄\2362A\project\system.c"
 230  01B0  0700     R  	mov a,_data_handle_2[2]
 230  01B1  0083        	mov mp,a
 230  01B2  0700     R  	mov a,_data_handle_2[3]
 230  01B3  0084        	mov sbp,a
 230  01B4              	fcall _Crom2Prom
 230  01BB  0080     R  	mov _data_handle_2[8],a
匡숭：system.c     긍陋포경굶 HGASM 0202 女늴13

 231  01BC              #line 231 "D:\zpw\귄\2362A\project\system.c"
 231  01BC  0F01        	mov a,1
 231  01BD  0300     R  	add a,_data_handle_2[2]
 231  01BE  0083        	mov mp,a
 231  01BF  0F00        	mov a,0
 231  01C0  1300     R  	adc a,_data_handle_2[3]
 231  01C1  0084        	mov sbp,a
 231  01C2              	fcall _Crom2Prom
 231  01C9  0080     R  	mov _data_handle_2[15],a
 232  01CA              #line 232 "D:\zpw\귄\2362A\project\system.c"
 232  01CA  0F02        	mov a,2
 232  01CB  0300     R  	add a,_data_handle_2[2]
 232  01CC  0083        	mov mp,a
 232  01CD  0F00        	mov a,0
 232  01CE  1300     R  	adc a,_data_handle_2[3]
 232  01CF  0084        	mov sbp,a
 232  01D0              	fcall _Crom2Prom
 232  01D7  0080     R  	mov _data_handle_2[16],a
 233  01D8              #line 233 "D:\zpw\귄\2362A\project\system.c"
 233  01D8  0F03        	mov a,3
 233  01D9  0300     R  	add a,_data_handle_2[2]
 233  01DA  0083        	mov mp,a
 233  01DB  0F00        	mov a,0
 233  01DC  1300     R  	adc a,_data_handle_2[3]
 233  01DD  0084        	mov sbp,a
 233  01DE              	fcall _Crom2Prom
 233  01E5  0080     R  	mov _data_handle_2[17],a
 233  01E6              #pragma debug scope 19 18
 233  01E6              ;begin block, line: 233.-1
 233  01E6              #pragma debug scope 20 19
 233  01E6              ;begin block, line: 233.-1
 207  01E6              #line 207 "D:\zpw\귄\2362A\project\system.c"
 207  01E6              	fcall _get_download_cmd_total
 207  01ED  0080     E  	mov ra,a
 209  01EE              #line 209 "D:\zpw\귄\2362A\project\system.c"
 209  01EE  1F00     E  	clr rb
 209  01EF              _L31:
 209  01EF  0700     E  	mov a,rb
 209  01F0  0200     E  	sub a,ra
 209  01F1  3C0A        	sz c
 209  01F2  2800     R  	jmp _L36
 210  01F3              #line 210 "D:\zpw\귄\2362A\project\system.c"
 210  01F3  0700     E  	mov a,rb
 210  01F4  0080     E  	mov rd,a
 210  01F5  1F00     E  	clr re
 210  01F6  340A        	clr c
 210  01F7  1A80     E  	rlc rd
 210  01F8  1A80     E  	rlc re
 210  01F9  0F00     E  	mov a,low offset _download_cmd
 210  01FA  0300     E  	add a,rd
 210  01FB  0083        	mov mp,a
 210  01FC  0F00     E  	mov a,high offset _download_cmd
 210  01FD  1300     E  	adc a,re
 210  01FE  0084        	mov sbp,a
 210  01FF              	fcall _Crom2Prom
 210  0206  0080     E  	mov rc,a
 210  0207  0700     E  	mov a,rc
 210  0208  0200     R  	sub a,_data_handle_2[8]
 210  0209  390A        	snz z
 210  020A  2800     R  	jmp _L32
匡숭：system.c     긍陋포경굶 HGASM 0202 女늴14

 210  020B              _L36:
 210  020B              #pragma debug scope 19 18
 210  020B              #pragma debug scope 18 17
 237  020B              #line 237 "D:\zpw\귄\2362A\project\system.c"
 237  020B  1F00     E  	clr rc
 237  020C  340A        	clr c
 237  020D  1A80     E  	rlc rb
 237  020E  1A80     E  	rlc rc
 237  020F  0F00     E  	mov a,low (offset _download_cmd+1)
 237  0210  0300     E  	add a,rb
 237  0211  0083        	mov mp,a
 237  0212  0F00     E  	mov a,high (offset _download_cmd+1)
 237  0213  1300     E  	adc a,rc
 237  0214  0084        	mov sbp,a
 237  0215              	fcall _Crom2Prom
 237  021C  0080     E  	mov ra,a
 237  021D  0700     R  	mov a,_data_handle_2[15]
 237  021E  0200     E  	sub a,ra
 237  021F  390A        	snz z
 237  0220  2800     R  	jmp _L33
 232  0221              #line 232 "D:\zpw\귄\2362A\project\system.c"
 232  0221  0700     R  	mov a,_data_handle_2[16]
 232  0222  0080     R  	mov _data_handle_2[10],a
 232  0223  1F00     R  	clr _data_handle_2[9]
 241  0224              #line 241 "D:\zpw\귄\2362A\project\system.c"
 241  0224  0700     R  	mov a,_data_handle_2[17]
 241  0225  0300     R  	add a,_data_handle_2[9]
 241  0226  0080     E  	mov _dp_download_handle_2[2],a
 241  0227  1F05        	clr acc
 241  0228  1300     R  	adc a,_data_handle_2[10]
 241  0229  0080     E  	mov _dp_download_handle_2[3],a
 241  022A  0F04        	mov a,4
 241  022B  0300     R  	add a,_data_handle_2[2]
 241  022C  0080     E  	mov _dp_download_handle_2[0],a
 241  022D  0F00        	mov a,0
 241  022E  1300     R  	adc a,_data_handle_2[3]
 241  022F  0080     E  	mov _dp_download_handle_2[1],a
 241  0230  0700     R  	mov a,_data_handle_2[8]
 241  0231              	fcall _dp_download_handle
 241  0238  2800     R  	jmp _L33
 241  0239              _L32:
 241  0239              #pragma debug scope 21 18
 241  0239              ;begin block, line: 241.-1
 241  0239              #pragma debug scope 22 21
 241  0239              ;begin block, line: 241.-1
 209  0239              #line 209 "D:\zpw\귄\2362A\project\system.c"
 209  0239  1480     E  	inc rb
 209  023A  2800     R  	jmp _L31
 209  023B              _L33:
 209  023B              #pragma debug scope 21 18
 209  023B              #pragma debug scope 18 17
 209  023B              #pragma debug scope 17 10
 209  023B              #pragma debug scope 10 1
 464  023B              #line 464 "D:\zpw\귄\2362A\project\system.c"
 464  023B  0F04        	mov a,4
 464  023C  0300     R  	add a,_data_handle_2[4]
 464  023D  0080     E  	mov rb,a
 464  023E  0F00        	mov a,0
 464  023F  1300     R  	adc a,_data_handle_2[5]
 464  0240  0080     E  	mov rc,a
匡숭：system.c     긍陋포경굶 HGASM 0202 女늴15

 474  0241              #line 474 "D:\zpw\귄\2362A\project\system.c"
 474  0241  0700     R  	mov a,_data_handle_2[13]
 474  0242  0380     E  	addm a,rb
 474  0243  0700     R  	mov a,_data_handle_2[14]
 474  0244  1380     E  	adcm a,rc
 474  0245  0700     R  	mov a,_data_handle_2[6]
 474  0246  0300     E  	add a,rb
 474  0247  0080     R  	mov _data_handle_2[4],a
 474  0248  0700     R  	mov a,_data_handle_2[7]
 474  0249  1300     E  	adc a,rc
 474  024A  0080     R  	mov _data_handle_2[5],a
 474  024B  2800     R  	jmp _L30
 474  024C              _L18:
 474  024C  0003        	ret
 474  024D              _data_handle endp
 474  024D              #line 474 "D:\zpw\귄\2362A\project\system.c"
 474  024D              #pragma debug scope 1 1
 474  024D              public _with_data_rxbuff
 474  024D              #pragma debug scope 23 1
 735  024D              #line 735 "D:\zpw\귄\2362A\project\system.c"
 735  0000              _with_data_rxbuff .section 'code'
 735  0000              _with_data_rxbuff proc
 736  0000              #line 736 "D:\zpw\귄\2362A\project\system.c"
 736  0000  0700     R  	mov a,_rx_buf_in[0]
 736  0001  0080     E  	mov rb,a
 736  0002  0700     R  	mov a,_rx_buf_in[1]
 736  0003  0080     E  	mov rc,a
 736  0004  0700     R  	mov a,_rx_buf_out[1]
 736  0005  0480     E  	xorm a,rc
 736  0006  0700     R  	mov a,_rx_buf_out[0]
 736  0007  0480     E  	xorm a,rb
 736  0008  0F00        	mov a,0
 736  0009  0200     E  	sub a,rb
 736  000A  0080     E  	mov rf,a
 736  000B  0F00        	mov a,0
 736  000C  1200     E  	sbc a,rc
 736  000D  0080     E  	mov rg,a
 736  000E  0700     E  	mov a,rg
 736  000F  0580     E  	orm a,rc
 736  0010  0700     E  	mov a,rf
 736  0011  0580     E  	orm a,rb
 736  0012  1800     E  	rla rc
 736  0013  0E01        	and a,1
 736  0014  0080     E  	mov ra,a
 740  0015              #line 740 "D:\zpw\귄\2362A\project\system.c"
 740  0015  0700     E  	mov a,ra
 740  0016  0003        	ret
 740  0017              _with_data_rxbuff endp
 740  0017              #line 740 "D:\zpw\귄\2362A\project\system.c"
 740  0017              #pragma debug scope 1 1
 740  0017              public _take_byte_rxbuff
 740  0017              #pragma debug scope 24 1
 748  0017              #line 748 "D:\zpw\귄\2362A\project\system.c"
 748  0000              _take_byte_rxbuff .section 'code'
 748  0000              _take_byte_rxbuff proc
 751  0000              #line 751 "D:\zpw\귄\2362A\project\system.c"
 751  0000  0700     R  	mov a,_rx_buf_out[0]
 751  0001  0080     E  	mov rb,a
 751  0002  0700     R  	mov a,_rx_buf_out[1]
 751  0003  0080     E  	mov rc,a
匡숭：system.c     긍陋포경굶 HGASM 0202 女늴16

 751  0004  0700     E  	mov a,rb
 751  0005  0200     R  	sub a,_rx_buf_in[0]
 751  0006  0700     E  	mov a,rc
 751  0007  1200     R  	sbc a,_rx_buf_in[1]
 751  0008  3F0A        	sz cz
 751  0009  2800     R  	jmp _L42
 753  000A              #line 753 "D:\zpw\귄\2362A\project\system.c"
 753  000A  0700     E  	mov a,rb
 753  000B  0A00     R  	sub a,low offset _wifi_uart_rx_buf[23]
 753  000C  0700     E  	mov a,rc
 753  000D  0800     R  	sbc a,high offset _wifi_uart_rx_buf[23]
 753  000E  380A        	snz c
 753  000F  2800     R  	jmp _L43
 755  0010              #line 755 "D:\zpw\귄\2362A\project\system.c"
 755  0010  0F00     R  	mov a,low offset _wifi_uart_rx_buf
 755  0011  0080     R  	mov _rx_buf_out[0],a
 755  0012  0F00     R  	mov a,high offset _wifi_uart_rx_buf
 755  0013  0080     R  	mov _rx_buf_out[1],a
 755  0014              _L43:
 758  0014              #line 758 "D:\zpw\귄\2362A\project\system.c"
 758  0014  0700     R  	mov a,_rx_buf_out[0]
 758  0015  0080     E  	mov rb,a
 758  0016  0700     R  	mov a,_rx_buf_out[1]
 758  0017  0080     E  	mov rc,a
 758  0018  0F01        	mov a,1
 758  0019  0300     E  	add a,rb
 758  001A  0080     R  	mov _rx_buf_out[0],a
 758  001B  0F00        	mov a,0
 758  001C  1300     E  	adc a,rc
 758  001D  0080     R  	mov _rx_buf_out[1],a
 758  001E  0700     E  	mov a,rb
 758  001F  0083        	mov mp,a
 758  0020  0700     E  	mov a,rc
 758  0021  0084        	mov sbp,a
 758  0022              	fcall _Crom2Prom
 758  0029  0080     E  	mov ra,a
 758  002A              _L42:
 762  002A              #line 762 "D:\zpw\귄\2362A\project\system.c"
 762  002A  0700     E  	mov a,ra
 762  002B  0003        	ret
 762  002C              _take_byte_rxbuff endp
 762  002C              #line 762 "D:\zpw\귄\2362A\project\system.c"
 762  002C              #pragma debug scope 1 1
 762  0000              @HCCINIT	.section 'data'
 130  0000              #line 130 "D:\zpw\귄\2362A\project\system.c"
 130  0000              @HCCINIT___mcu_reset_state_1097 .section 'data'
 130  0000              ___mcu_reset_state_1097 label byte
 130  0000              #pragma debug variable 8 1 ___mcu_reset_state_1097 "__mcu_reset_state_1097"
 130  0000              	db 0
 130  0000              @ROMDATA_BASE .section inpage 'code'
 130  0000              	db 0
 130  0001              @HCCINIT___mcu_reset_state_1097 .section 'data'

 101  0001              #line 101 "D:\zpw\귄\2362A\project\system.h"
 101  0001              public _wifi_work_state
 101  0000              @HCCINIT0_wifi_work_state .section 'data'
 101  0000              _wifi_work_state	db 0
 101  0001              #pragma debug variable 8 1 _wifi_work_state "wifi_work_state"
 101  0001              
 101  0000              @HCCINIT .section 'data'
匡숭：system.h     긍陋포경굶 HGASM 0202 女늴17

 100  0000              #line 100 "D:\zpw\귄\2362A\project\system.h"
 100  0000              public _set_wifimode_flag
 100  0000              @HCCINIT0_set_wifimode_flag .section 'data'
 100  0000              _set_wifimode_flag	db 0
 100  0001              #pragma debug variable 8 1 _set_wifimode_flag "set_wifimode_flag"
 100  0001              
 100  0000              @HCCINIT .section 'data'
  99  0000              #line 99 "D:\zpw\귄\2362A\project\system.h"
  99  0000              public _reset_wifi_flag
  99  0000              @HCCINIT0_reset_wifi_flag .section 'data'
  99  0000              _reset_wifi_flag	db 0
  99  0001              #pragma debug variable 8 1 _reset_wifi_flag "reset_wifi_flag"
  99  0001              
  99  0000              @HCCINIT .section 'data'
  96  0000              #line 96 "D:\zpw\귄\2362A\project\system.h"
  96  0000              public _stop_update_flag
  96  0000              @HCCINIT0_stop_update_flag .section 'data'
  96  0000              _stop_update_flag	db 0
  96  0001              #pragma debug variable 8 1 _stop_update_flag "stop_update_flag"
  96  0001              
  96  0000              @HCCINIT .section 'data'
  94  0000              #line 94 "D:\zpw\귄\2362A\project\system.h"
  94  0000              public _rx_buf_out
  94  0000              @HCCINIT0_rx_buf_out .section 'data'
  94  0000  0002[       _rx_buf_out	db 2 dup(0)
            00
            ]
  94  0002              #pragma debug pointer 44 8 1
  94  0002              #pragma debug pointer 44 8 1
  94  0002              #pragma debug variable 44 1 _rx_buf_out "rx_buf_out"
  94  0002              
  94  0000              @HCCINIT .section 'data'
  93  0000              #line 93 "D:\zpw\귄\2362A\project\system.h"
  93  0000              public _rx_buf_in
  93  0000              @HCCINIT0_rx_buf_in .section 'data'
  93  0000  0002[       _rx_buf_in	db 2 dup(0)
            00
            ]
  93  0002              #pragma debug variable 44 1 _rx_buf_in "rx_buf_in"
  93  0002              
  93  0000              @HCCINIT .section 'data'
  91  0000              #line 91 "D:\zpw\귄\2362A\project\system.h"
  91  0000              public _wifi_uart_tx_buf
  91  0000              @HCCINIT0_wifi_uart_tx_buf .section 'data'
  91  0000  0037[       _wifi_uart_tx_buf	db 55 dup(0)
            00
            ]
  91  0037              #pragma debug array 45 8 55 1
  91  0037              #pragma debug array 45 8 55 1
  91  0037              #pragma debug variable 45 1 _wifi_uart_tx_buf "wifi_uart_tx_buf"
  91  0037              
  91  0000              @HCCINIT .section 'data'
  90  0000              #line 90 "D:\zpw\귄\2362A\project\system.h"
  90  0000              public _wifi_uart_rx_buf
  90  0000              @HCCINIT0_wifi_uart_rx_buf .section 'data'
  90  0000  0017[       _wifi_uart_rx_buf	db 23 dup(0)
            00
            ]
  90  0017              #pragma debug array 46 8 23 1
  90  0017              #pragma debug array 46 8 23 1
匡숭：system.h     긍陋포경굶 HGASM 0202 女늴18

  90  0017              #pragma debug variable 46 1 _wifi_uart_rx_buf "wifi_uart_rx_buf"
  90  0017              
  90  0000              @HCCINIT .section 'data'
  89  0000              #line 89 "D:\zpw\귄\2362A\project\system.h"
  89  0000              public _wifi_data_process_buf
  89  0000              @HCCINIT0_wifi_data_process_buf .section 'data'
  89  0000  001F[       _wifi_data_process_buf	db 31 dup(0)
            00
            ]
  89  001F              #pragma debug array 47 8 31 1
  89  001F              #pragma debug array 47 8 31 1
  89  001F              #pragma debug variable 47 1 _wifi_data_process_buf "wifi_data_process_buf"
  89  001F              
  89  0000              @HCCINIT .section 'data'
  89  0000              
  89  0000              ; output external variables
  89  0000              extern _download_cmd:near
  89  0000              extern _my_memcpy_2:byte
  89  0000              extern _my_memcpy:near
  89  0000              extern _uart_transmit_output:near
  89  0000              extern _all_data_update:near
  89  0000              extern _my_strlen_2:byte
  89  0000              extern _my_strlen:near
  89  0000              extern _get_download_cmd_total:near
  89  0000              extern _dp_download_handle_2:byte
  89  0000              extern _dp_download_handle:near
  89  0000              
  89  0000              ; 
  89  0000              ; Generated by holtek-gcc v3.23, Wed Apr 08 12:56:36 2026
  89  0000              ; Rebuild 1114
  89  0000              ; end of file


        0 Errors, 0