匡숭：Timer0.c     긍陋포경굶 HGASM 0202 女늴1


   1  0000              ; Generated by holtek-gcc v3.23, Wed Apr 08 12:56:33 2026
   2  0000              ; 
   3  0000              ; Configuration:
   4  0000              ;       with long instruction
   5  0000              ;       Multi-ROM, Multi-RAM
   6  0000              ;       bits_per_rom_unit:16
   7  0000              ;       with mp1
   8  0000              ;       with tbhp, address(0x9)
   9  0000              ;          Use tabrd-const
  10  0000              ;       
  11  0000              ; SFR address of long-instruction arch:
  12  0000              ;    mp0 = -1,1,0
  13  0000              ;    mp1 = 4,3,2
  14  0000              ;    mp2 = 14,13,12
  15  0000              ;    tbp = 9,7,8
  16  0000              ;    acc = 5
  17  0000              ;    pcl = 6
  18  0000              ;    status = 10
  19  0000              ;    bp = 11
  20  0000              ;    intc = 16
  21  0000              ;       
  22  0000              ;       
  23  0000              ; use 'tabrdc' instead of 'tabrd'
  24  0000              ;       
  25  0000              
  26  0000              #pragma translator "holtek-gcc 4.6.4" "3.23" "build 20130711"
  27  0000              ; Rebuild 1114
  28  0000              
  29  0000              ir equ [2]
  30  0000              mp equ [3]
  31  0000              sbp equ [4]
  32  0000              acc equ [5]
  33  0000              bp equ [11]
  34  0000              tblp equ [7]
  35  0000              tbhp equ [9]
  36  0000              status equ [10]
  37  0000              c equ [10].0
  38  0000              ac equ [10].1
  39  0000              z equ [10].2
  40  0000              ov equ [10].3
  41  0000              cz equ [10].6
  42  0000              sc equ [10].7
  43  0000              intc equ [16]
  44  0000              mduwr0 equ [59h]
  45  0000              mduwr1 equ [5ah]
  46  0000              mduwr2 equ [5bh]
  47  0000              mduwr3 equ [5ch]
  48  0000              mduwr4 equ [5dh]
  49  0000              mduwr5 equ [5eh]
  50  0000              mduwrctrl equ [5fh]
  51  0000              
  52  0000              extern ra:byte
  53  0000              extern rb:byte
  54  0000              extern rc:byte
  55  0000              extern rd:byte
  56  0000              extern re:byte
  57  0000              extern rf:byte
  58  0000              extern rg:byte
  59  0000              extern rh:byte
匡숭：Timer0.ASM   긍陋포경굶 HGASM 0202 女늴2

  60  0000              extern _Crom2Prom:near
  61  0000              extern _Crom2PromNext:near
  62  0000              
  63  0000              RAMBANK 0 @BITDATASEC, @BITDATASEC1
  64  0000              @HCCINIT	.section 'data'
  65  0000              @HCCINIT0	.section 'data'
  66  0000              @BITDATASEC	 .section 'data'
  67  0000              @BITDATASEC1	 .section 'data'
  68  0000              
  69  0000              #pragma debug scope 1 1
  70  0000              	extern __DELAY3:near
  71  0000              	extern __DELAYX3:near
  72  0000              	extern __DELAYX6:near
  73  0000              	extern __DELAYY5:near
  74  0000              	extern __DELAYY3:near
  75  0000              	extern _builtin_holtek_delay_2:byte
  76  0000              ___stm0c0 equ [264]
  77  0000              ___stm0c1 equ [265]
  78  0000              ___stm0al equ [268]
  79  0000              ___stm0ah equ [269]
  80  0000              ___intc0 equ [16]
  81  0000              ___mfi0 equ [70]
  82  0000              ___intc1 equ [17]
  83  0000              public _Timer0_Init
  84  0000              #pragma debug scope 2 1

   6  0000              #line 6 "D:\zpw\귄\2362A\project\Timer0.c"
   6  0000              _Timer0_Init .section 'code'
   6  0000              _Timer0_Init proc
   9  0000              #line 9 "D:\zpw\귄\2362A\project\Timer0.c"
   9  0000  B208 0001   	lset [264].4
  10  0002              #line 10 "D:\zpw\귄\2362A\project\Timer0.c"
  10  0002  B288 0001   	lset [264].5
  11  0004              #line 11 "D:\zpw\귄\2362A\project\Timer0.c"
  11  0004  B708 0001   	lclr [264].6
  16  0006              #line 16 "D:\zpw\귄\2362A\project\Timer0.c"
  16  0006  B389 0001   	lset [265].7
  17  0008              #line 17 "D:\zpw\귄\2362A\project\Timer0.c"
  17  0008  B309 0001   	lset [265].6
  20  000A              #line 20 "D:\zpw\귄\2362A\project\Timer0.c"
  20  000A  B009 0001   	lset [265].0
  22  000C              #line 22 "D:\zpw\귄\2362A\project\Timer0.c"
  22  000C  0FE2        	mov a,226
  22  000D  808C 0001   	lmov [268],a
  23  000F              #line 23 "D:\zpw\귄\2362A\project\Timer0.c"
  23  000F  0F04        	mov a,4
  23  0010  808D 0001   	lmov [269],a
  26  0012              #line 26 "D:\zpw\귄\2362A\project\Timer0.c"
  26  0012  3010        	set [16].0
  27  0013              #line 27 "D:\zpw\귄\2362A\project\Timer0.c"
  27  0013  31C6        	set [70].3
  28  0014              #line 28 "D:\zpw\귄\2362A\project\Timer0.c"
  28  0014  3091        	set [17].1
  31  0015              #line 31 "D:\zpw\귄\2362A\project\Timer0.c"
  31  0015  B188 0001   	lset [264].3
  31  0017  0003        	ret
  31  0018              _Timer0_Init endp
  31  0018              #line 31 "D:\zpw\귄\2362A\project\Timer0.c"
  31  0018              #pragma debug scope 1 1
  31  0018              public _Key_Timer
匡숭：Timer0.c     긍陋포경굶 HGASM 0202 女늴3

  31  0018              #pragma debug scope 3 1
  38  0018              #line 38 "D:\zpw\귄\2362A\project\Timer0.c"
  38  0000              _Key_Timer .section 'code'
  38  0000              _Key_Timer proc
  40  0000              #line 40 "D:\zpw\귄\2362A\project\Timer0.c"
  40  0000  1400     R  	inca ___Key_Count_3466[0]
  40  0001  0080     E  	mov ra,a
  41  0002              #line 41 "D:\zpw\귄\2362A\project\Timer0.c"
  41  0002  0F01        	mov a,1
  41  0003  0200     E  	sub a,ra
  41  0004  380A        	snz c
  41  0005  2800     R  	jmp _L3
  40  0006              #line 40 "D:\zpw\귄\2362A\project\Timer0.c"
  40  0006  0700     E  	mov a,ra
  40  0007  0080     R  	mov ___Key_Count_3466[0],a
  40  0008  2800     R  	jmp _L2
  40  0009              _L3:
  43  0009              #line 43 "D:\zpw\귄\2362A\project\Timer0.c"
  43  0009  1F00     R  	clr ___Key_Count_3466[0]
  44  000A              #line 44 "D:\zpw\귄\2362A\project\Timer0.c"
  44  000A  0F01        	mov a,1
  44  000B  0080     R  	mov _Key_Check_Running_Flag[0],a
  44  000C              _L2:
  44  000C  0003        	ret
  44  000D              _Key_Timer endp
  44  000D              #line 44 "D:\zpw\귄\2362A\project\Timer0.c"
  44  000D              #pragma debug scope 1 1
  44  000D              public _LCD_Bind_Check_Timer
  44  000D              #pragma debug scope 4 1
  52  000D              #line 52 "D:\zpw\귄\2362A\project\Timer0.c"
  52  0000              _LCD_Bind_Check_Timer .section 'code'
  52  0000              _LCD_Bind_Check_Timer proc
  53  0000              #line 53 "D:\zpw\귄\2362A\project\Timer0.c"
  53  0000  1400     R  	inca _LCD_Bind_Check_Count[0]
  53  0001  0080     E  	mov ra,a
  54  0002              #line 54 "D:\zpw\귄\2362A\project\Timer0.c"
  54  0002  0FC7        	mov a,199
  54  0003  0200     E  	sub a,ra
  54  0004  380A        	snz c
  54  0005  2800     R  	jmp _L7
  53  0006              #line 53 "D:\zpw\귄\2362A\project\Timer0.c"
  53  0006  0700     E  	mov a,ra
  53  0007  0080     R  	mov _LCD_Bind_Check_Count[0],a
  53  0008  2800     R  	jmp _L6
  53  0009              _L7:
  56  0009              #line 56 "D:\zpw\귄\2362A\project\Timer0.c"
  56  0009  1F00     R  	clr _LCD_Bind_Check_Count[0]
  57  000A              #line 57 "D:\zpw\귄\2362A\project\Timer0.c"
  57  000A  0F01        	mov a,1
  57  000B  0080     R  	mov _LCD_Bind_Check_Running_Flag[0],a
  57  000C              _L6:
  57  000C  0003        	ret
  57  000D              _LCD_Bind_Check_Timer endp
  57  000D              #line 57 "D:\zpw\귄\2362A\project\Timer0.c"
  57  000D              #pragma debug scope 1 1
  57  000D              public _LCD_WIFI_Check_Timer
  57  000D              #pragma debug scope 5 1
  65  000D              #line 65 "D:\zpw\귄\2362A\project\Timer0.c"
  65  0000              _LCD_WIFI_Check_Timer .section 'code'
  65  0000              _LCD_WIFI_Check_Timer proc
匡숭：Timer0.c     긍陋포경굶 HGASM 0202 女늴4

  66  0000              #line 66 "D:\zpw\귄\2362A\project\Timer0.c"
  66  0000  1400     R  	inca _LCD_WIFI_Check_Count[0]
  66  0001  0080     E  	mov ra,a
  67  0002              #line 67 "D:\zpw\귄\2362A\project\Timer0.c"
  67  0002  0FC7        	mov a,199
  67  0003  0200     E  	sub a,ra
  67  0004  380A        	snz c
  67  0005  2800     R  	jmp _L10
  66  0006              #line 66 "D:\zpw\귄\2362A\project\Timer0.c"
  66  0006  0700     E  	mov a,ra
  66  0007  0080     R  	mov _LCD_WIFI_Check_Count[0],a
  66  0008  2800     R  	jmp _L9
  66  0009              _L10:
  69  0009              #line 69 "D:\zpw\귄\2362A\project\Timer0.c"
  69  0009  1F00     R  	clr _LCD_WIFI_Check_Count[0]
  70  000A              #line 70 "D:\zpw\귄\2362A\project\Timer0.c"
  70  000A  0F01        	mov a,1
  70  000B  0080     R  	mov _LCD_WIFI_Check_Running_Flag[0],a
  70  000C              _L9:
  70  000C  0003        	ret
  70  000D              _LCD_WIFI_Check_Timer endp
  70  000D              #line 70 "D:\zpw\귄\2362A\project\Timer0.c"
  70  000D              #pragma debug scope 1 1
  70  000D              public _LCD_Power_Check_Timer
  70  000D              #pragma debug scope 6 1
  78  000D              #line 78 "D:\zpw\귄\2362A\project\Timer0.c"
  78  0000              _LCD_Power_Check_Timer .section 'code'
  78  0000              _LCD_Power_Check_Timer proc
  79  0000              #line 79 "D:\zpw\귄\2362A\project\Timer0.c"
  79  0000  1400     R  	inca _LCD_Power_Check_Count[0]
  79  0001  0080     E  	mov ra,a
  80  0002              #line 80 "D:\zpw\귄\2362A\project\Timer0.c"
  80  0002  0FC7        	mov a,199
  80  0003  0200     E  	sub a,ra
  80  0004  380A        	snz c
  80  0005  2800     R  	jmp _L13
  79  0006              #line 79 "D:\zpw\귄\2362A\project\Timer0.c"
  79  0006  0700     E  	mov a,ra
  79  0007  0080     R  	mov _LCD_Power_Check_Count[0],a
  79  0008  2800     R  	jmp _L12
  79  0009              _L13:
  82  0009              #line 82 "D:\zpw\귄\2362A\project\Timer0.c"
  82  0009  1F00     R  	clr _LCD_Power_Check_Count[0]
  83  000A              #line 83 "D:\zpw\귄\2362A\project\Timer0.c"
  83  000A  0F01        	mov a,1
  83  000B  0080     R  	mov _LCD_Power_Check_Running_Flag[0],a
  83  000C              _L12:
  83  000C  0003        	ret
  83  000D              _LCD_Power_Check_Timer endp
  83  000D              #line 83 "D:\zpw\귄\2362A\project\Timer0.c"
  83  000D              #pragma debug scope 1 1
  83  000D              public _UART0_433MHz_Pairing_Code_Timer
  83  000D              #pragma debug scope 7 1
  91  000D              #line 91 "D:\zpw\귄\2362A\project\Timer0.c"
  91  0000              _UART0_433MHz_Pairing_Code_Timer .section 'code'
  91  0000              _UART0_433MHz_Pairing_Code_Timer proc
  92  0000              #line 92 "D:\zpw\귄\2362A\project\Timer0.c"
  92  0000  1400     R  	inca _UART0_433MHz_Pairing_Code_Count[0]
  92  0001  0080     E  	mov ra,a
  93  0002              #line 93 "D:\zpw\귄\2362A\project\Timer0.c"
匡숭：Timer0.c     긍陋포경굶 HGASM 0202 女늴5

  93  0002  0F09        	mov a,9
  93  0003  0200     E  	sub a,ra
  93  0004  380A        	snz c
  93  0005  2800     R  	jmp _L16
  92  0006              #line 92 "D:\zpw\귄\2362A\project\Timer0.c"
  92  0006  0700     E  	mov a,ra
  92  0007  0080     R  	mov _UART0_433MHz_Pairing_Code_Count[0],a
  92  0008  2800     R  	jmp _L15
  92  0009              _L16:
  95  0009              #line 95 "D:\zpw\귄\2362A\project\Timer0.c"
  95  0009  1F00     R  	clr _UART0_433MHz_Pairing_Code_Count[0]
  96  000A              #line 96 "D:\zpw\귄\2362A\project\Timer0.c"
  96  000A  0F01        	mov a,1
  96  000B  0080     R  	mov _UART0_433MHz_Pairing_Code_Running_Flag[0],a
  96  000C              _L15:
  96  000C  0003        	ret
  96  000D              _UART0_433MHz_Pairing_Code_Timer endp
  96  000D              #line 96 "D:\zpw\귄\2362A\project\Timer0.c"
  96  000D              #pragma debug scope 1 1
  96  000D              public _Interrupt_TIM0
  96  000D              #pragma debug scope 8 1
 102  000D              #line 102 "D:\zpw\귄\2362A\project\Timer0.c"
 102  000D              rombank 0 @Interrupt_TIM0_code
 102  0000              @Interrupt_TIM0_code .section at 20 'code'
 102  0000  0080     E  	mov r1,a
 102  0001  070B        	mov a,bp
 102  0002  1F0B        	clr bp
 102  0003  2800     R  	jmp _Interrupt_TIM0
 102  0004              ROMBANK 0 _Interrupt_TIM0
 102  0004              #pragma debug scope 1 1
 102  0004              @dummy20 endp
 102  0004              #pragma debug scope 9 1
 102  0000              _Interrupt_TIM0 .section 'code'
 102  0000              _Interrupt_TIM0 proc
 102  0000  0080     E  	mov r2,a
 102  0001  070A        	mov a, status
 102  0002  0080     E  	mov r3,a
 102  0003  0703        	mov a,mp
 102  0004  0080     E  	mov r4,a
 102  0005  0704        	mov a,sbp
 102  0006  0080     E  	mov r5,a
 102  0007  0707        	mov a,tblp
 102  0008  0080     E  	mov r6,a
 102  0009  0709        	mov a,tbhp
 102  000A  0080     E  	mov r7,a
 104  000B              #line 104 "D:\zpw\귄\2362A\project\Timer0.c"
 104  000B  37C6        	clr [70].7
 106  000C              #line 106 "D:\zpw\귄\2362A\project\Timer0.c"
 106  000C              	fcall _Key_Timer
 107  0013              #line 107 "D:\zpw\귄\2362A\project\Timer0.c"
 107  0013              	fcall _LCD_Bind_Check_Timer
 108  001A              #line 108 "D:\zpw\귄\2362A\project\Timer0.c"
 108  001A              	fcall _LCD_WIFI_Check_Timer
 109  0021              #line 109 "D:\zpw\귄\2362A\project\Timer0.c"
 109  0021              	fcall _LCD_Power_Check_Timer
 110  0028              #line 110 "D:\zpw\귄\2362A\project\Timer0.c"
 110  0028              	fcall _UART0_433MHz_Pairing_Code_Timer
 114  002F              #line 114 "D:\zpw\귄\2362A\project\Timer0.c"
 114  002F  3010        	set [16].0
 114  0030  0700     E  	mov a,r2
匡숭：Timer0.c     긍陋포경굶 HGASM 0202 女늴6

 114  0031  008B        	mov bp,a
 114  0032  0700     E  	mov a,r3
 114  0033  008A        	mov status,a
 114  0034  0700     E  	mov a,r4
 114  0035  0083        	mov mp,a
 114  0036  0700     E  	mov a,r5
 114  0037  0084        	mov sbp,a
 114  0038  0700     E  	mov a,r6
 114  0039  0087        	mov tblp,a
 114  003A  0700     E  	mov a,r7
 114  003B  0089        	mov tbhp,a
 114  003C  1D05        	tabrdc acc
 114  003D  0700     E  	mov a,r1
 114  003E  0004        	reti
 114  003F              _Interrupt_TIM0 endp
 114  003F              
 114  003F              #line 114 "D:\zpw\귄\2362A\project\Timer0.c"
 114  003F              #pragma debug scope 1 1
 114  0000              @HCCINIT	.section 'data'
  39  0000              #line 39 "D:\zpw\귄\2362A\project\Timer0.c"
  39  0000              @HCCINIT___Key_Count_3466 .section 'data'
  39  0000              ___Key_Count_3466 label byte
  39  0000              #pragma debug variable 8 1 ___Key_Count_3466 "__Key_Count_3466"
  39  0000              	db 0
  39  0000              @ROMDATA_BASE .section inpage 'code'
  39  0000              	db 0
  39  0001              @HCCINIT___Key_Count_3466 .section 'data'
  39  0001              public _UART0_433MHz_Pairing_Code_Count
  89  0001              #line 89 "D:\zpw\귄\2362A\project\Timer0.c"
  89  0000              @HCCINIT_UART0_433MHz_Pairing_Code_Count .section 'data'
  89  0000              _UART0_433MHz_Pairing_Code_Count label byte
  89  0000              #pragma debug variable 8 1 _UART0_433MHz_Pairing_Code_Count "UART0_433MHz_Pairing_Code_Count"
  89  0000              	db 0
  89  0001              @ROMDATA_BASE .section inpage 'code'
  89  0001              	db 0
  89  0001              @HCCINIT_UART0_433MHz_Pairing_Code_Count .section 'data'
  89  0001              public _UART0_433MHz_Pairing_Code_Running_Flag
  88  0001              #line 88 "D:\zpw\귄\2362A\project\Timer0.c"
  88  0000              @HCCINIT_UART0_433MHz_Pairing_Code_Running_Flag .section 'data'
  88  0000              _UART0_433MHz_Pairing_Code_Running_Flag label byte
  88  0000              #pragma debug variable 8 1 _UART0_433MHz_Pairing_Code_Running_Flag "UART0_433MHz_Pairing_Code_Running_Flag"
  88  0000              	db 0
  88  0001              @ROMDATA_BASE .section inpage 'code'
  88  0001              	db 0
  88  0001              @HCCINIT_UART0_433MHz_Pairing_Code_Running_Flag .section 'data'
  88  0001              public _LCD_Power_Check_Count
  76  0001              #line 76 "D:\zpw\귄\2362A\project\Timer0.c"
  76  0000              @HCCINIT_LCD_Power_Check_Count .section 'data'
  76  0000              _LCD_Power_Check_Count label byte
  76  0000              #pragma debug variable 8 1 _LCD_Power_Check_Count "LCD_Power_Check_Count"
  76  0000              	db 0
  76  0002              @ROMDATA_BASE .section inpage 'code'
  76  0002              	db 0
  76  0001              @HCCINIT_LCD_Power_Check_Count .section 'data'
  76  0001              public _LCD_Power_Check_Running_Flag
  75  0001              #line 75 "D:\zpw\귄\2362A\project\Timer0.c"
  75  0000              @HCCINIT_LCD_Power_Check_Running_Flag .section 'data'
  75  0000              _LCD_Power_Check_Running_Flag label byte
  75  0000              #pragma debug variable 8 1 _LCD_Power_Check_Running_Flag "LCD_Power_Check_Running_Flag"
  75  0000              	db 0
匡숭：Timer0.c     긍陋포경굶 HGASM 0202 女늴7

  75  0002              @ROMDATA_BASE .section inpage 'code'
  75  0002              	db 0
  75  0001              @HCCINIT_LCD_Power_Check_Running_Flag .section 'data'
  75  0001              public _LCD_WIFI_Check_Count
  63  0001              #line 63 "D:\zpw\귄\2362A\project\Timer0.c"
  63  0000              @HCCINIT_LCD_WIFI_Check_Count .section 'data'
  63  0000              _LCD_WIFI_Check_Count label byte
  63  0000              #pragma debug variable 8 1 _LCD_WIFI_Check_Count "LCD_WIFI_Check_Count"
  63  0000              	db 0
  63  0003              @ROMDATA_BASE .section inpage 'code'
  63  0003              	db 0
  63  0001              @HCCINIT_LCD_WIFI_Check_Count .section 'data'
  63  0001              public _LCD_WIFI_Check_Running_Flag
  62  0001              #line 62 "D:\zpw\귄\2362A\project\Timer0.c"
  62  0000              @HCCINIT_LCD_WIFI_Check_Running_Flag .section 'data'
  62  0000              _LCD_WIFI_Check_Running_Flag label byte
  62  0000              #pragma debug variable 8 1 _LCD_WIFI_Check_Running_Flag "LCD_WIFI_Check_Running_Flag"
  62  0000              	db 0
  62  0003              @ROMDATA_BASE .section inpage 'code'
  62  0003              	db 0
  62  0001              @HCCINIT_LCD_WIFI_Check_Running_Flag .section 'data'
  62  0001              public _LCD_Bind_Check_Count
  50  0001              #line 50 "D:\zpw\귄\2362A\project\Timer0.c"
  50  0000              @HCCINIT_LCD_Bind_Check_Count .section 'data'
  50  0000              _LCD_Bind_Check_Count label byte
  50  0000              #pragma debug variable 8 1 _LCD_Bind_Check_Count "LCD_Bind_Check_Count"
  50  0000              	db 0
  50  0004              @ROMDATA_BASE .section inpage 'code'
  50  0004              	db 0
  50  0001              @HCCINIT_LCD_Bind_Check_Count .section 'data'
  50  0001              public _LCD_Bind_Check_Running_Flag
  49  0001              #line 49 "D:\zpw\귄\2362A\project\Timer0.c"
  49  0000              @HCCINIT_LCD_Bind_Check_Running_Flag .section 'data'
  49  0000              _LCD_Bind_Check_Running_Flag label byte
  49  0000              #pragma debug variable 8 1 _LCD_Bind_Check_Running_Flag "LCD_Bind_Check_Running_Flag"
  49  0000              	db 0
  49  0004              @ROMDATA_BASE .section inpage 'code'
  49  0004              	db 0
  49  0001              @HCCINIT_LCD_Bind_Check_Running_Flag .section 'data'
  49  0001              public _Key_Check_Running_Flag
  36  0001              #line 36 "D:\zpw\귄\2362A\project\Timer0.c"
  36  0000              @HCCINIT_Key_Check_Running_Flag .section 'data'
  36  0000              _Key_Check_Running_Flag label byte
  36  0000              #pragma debug variable 8 1 _Key_Check_Running_Flag "Key_Check_Running_Flag"
  36  0000              	db 0
  36  0005              @ROMDATA_BASE .section inpage 'code'
  36  0005              	db 0
  36  0001              @HCCINIT_Key_Check_Running_Flag .section 'data'
  36  0001              #pragma debug struct_end
  36  0001              #pragma debug struct_end
  36  0001              #pragma debug union_end
  36  0001              #pragma debug union_end
  36  0001              #pragma debug variable 43 1 ___intc0 "__intc0" 1
  36  0001              #pragma debug struct_end
  36  0001              #pragma debug struct_end
  36  0001              #pragma debug union_end
  36  0001              #pragma debug union_end
  36  0001              #pragma debug variable 45 1 ___intc1 "__intc1" 1
  36  0001              #pragma debug struct_end
  36  0001              #pragma debug struct_end
匡숭：Timer0.c     긍陋포경굶 HGASM 0202 女늴8

  36  0001              #pragma debug union_end
  36  0001              #pragma debug union_end
  36  0001              #pragma debug variable 47 1 ___mfi0 "__mfi0" 1
  36  0001              #pragma debug struct_end
  36  0001              #pragma debug struct_end
  36  0001              #pragma debug union_end
  36  0001              #pragma debug union_end
  36  0001              #pragma debug variable 49 1 ___stm0c0 "__stm0c0" 1
  36  0001              #pragma debug struct_end
  36  0001              #pragma debug struct_end
  36  0001              #pragma debug union_end
  36  0001              #pragma debug union_end
  36  0001              #pragma debug variable 51 1 ___stm0c1 "__stm0c1" 1
  36  0001              #pragma debug variable 8 1 ___stm0al "__stm0al" 1
  36  0001              #pragma debug variable 8 1 ___stm0ah "__stm0ah" 1
  36  0001              @HCCINIT___Key_Count_3466 .section 'data'
  36  0001              #pragma debug variable 8 3 ___Key_Count_3466 "Key_Count"
  36  0001              extern r1:byte
  36  0001              extern r2:byte
  36  0001              extern r3:byte
  36  0001              extern r4:byte
  36  0001              extern r5:byte
  36  0001              extern r6:byte
  36  0001              extern r7:byte
  36  0001              
  36  0001              ; 
  36  0001              ; Generated by holtek-gcc v3.23, Wed Apr 08 12:56:33 2026
  36  0001              ; Rebuild 1114
  36  0001              ; end of file


        0 Errors, 0